EXPORTS
	??0CStifTFwIf@@IAE@XZ @ 1 NONAME ; CStifTFwIf::CStifTFwIf(void)
	??0CUIStoreIf@@IAE@XZ @ 2 NONAME ; CUIStoreIf::CUIStoreIf(void)
	??1CStifTFwIf@@UAE@XZ @ 3 NONAME ; CStifTFwIf::~CStifTFwIf(void)
	??1CUIStoreIf@@UAE@XZ @ 4 NONAME ; CUIStoreIf::~CUIStoreIf(void)
	?AbortTestSet@CUIStore@@QAEHAAVCStartedTestSet@@@Z @ 5 NONAME ; int CUIStore::AbortTestSet(class CStartedTestSet &)
	?AddTestCaseFile@CStifTFwIf@@IAEHAAVTDesC16@@0@Z @ 6 NONAME ; int CStifTFwIf::AddTestCaseFile(class TDesC16 &, class TDesC16 &)
	?AddTestCaseFile@CUIStore@@QAEHABVTDesC16@@0@Z @ 7 NONAME ; int CUIStore::AddTestCaseFile(class TDesC16 const &, class TDesC16 const &)
	?AddTestModule@CStifTFwIf@@IAEHAAVTDesC16@@0@Z @ 8 NONAME ; int CStifTFwIf::AddTestModule(class TDesC16 &, class TDesC16 &)
	?AddTestModule@CUIStore@@QAEHABVTDesC16@@0@Z @ 9 NONAME ; int CUIStore::AddTestModule(class TDesC16 const &, class TDesC16 const &)
	?AddToTestSet@CUIStore@@QAEHABVTDesC16@@ABVCTestInfo@@@Z @ 10 NONAME ; int CUIStore::AddToTestSet(class TDesC16 const &, class CTestInfo const &)
	?AtsReceive@CStifTFwIf@@IAEHABVTDesC16@@@Z @ 11 NONAME ; int CStifTFwIf::AtsReceive(class TDesC16 const &)
	?CancelTest@CUIEngineContainer@@QAEHXZ @ 12 NONAME ; int CUIEngineContainer::CancelTest(void)
	?CancelTestCase@CStifTFwIf@@IAEHH@Z @ 13 NONAME ; int CStifTFwIf::CancelTestCase(int)
	?Close@CStifTFwIf@@IAEHXZ @ 14 NONAME ; int CStifTFwIf::Close(void)
	?Close@CUIStore@@QAEHXZ @ 15 NONAME ; int CUIStore::Close(void)
	?ConstructL@CUIStoreIf@@IAEXXZ @ 16 NONAME ; void CUIStoreIf::ConstructL(void)
	?CreateTestSet@CUIStore@@QAEHABVTDesC16@@@Z @ 17 NONAME ; int CUIStore::CreateTestSet(class TDesC16 const &)
	?GetTestCases@CStifTFwIf@@IAEHAAV?$RPointerArray@VCTestInfo@@@@AAVTDesC16@@1@Z @ 18 NONAME ; int CStifTFwIf::GetTestCases(class RPointerArray<class CTestInfo> &, class TDesC16 &, class TDesC16 &)
	?GoingToReboot@CStifTFw@@EAEHPAVCUIEngineContainer@@AAVTRequestStatus@@@Z @ 19 NONAME ; int CStifTFw::GoingToReboot(class CUIEngineContainer *, class TRequestStatus &)
	?InsertToTestSet@CUIStore@@QAEHABVTDesC16@@ABVCTestInfo@@H@Z @ 20 NONAME ; int CUIStore::InsertToTestSet(class TDesC16 const &, class CTestInfo const &, int)
	?ListAllModules@CUIStore@@QAEHAAV?$RPointerArray@VTDesC16@@@@@Z @ 21 NONAME ; int CUIStore::ListAllModules(class RPointerArray<class TDesC16> &)
	?LoadAllModules@CUIStore@@QAEHXZ @ 22 NONAME ; int CUIStore::LoadAllModules(void)
	?LoadSavedTestCases@CUIStore@@QAEHXZ @ 23 NONAME ; int CUIStore::LoadSavedTestCases(void)
	?LoadTestSet@CUIStore@@QAEHABVTDesC16@@@Z @ 24 NONAME ; int CUIStore::LoadTestSet(class TDesC16 const &)
	?Modules@CUIStore@@QAEHAAV?$RRefArray@VTDesC16@@@@@Z @ 25 NONAME ; int CUIStore::Modules(class RRefArray<class TDesC16> &)
	?NewL@CTestInfo@@SAPAV1@XZ @ 26 NONAME ; class CTestInfo * CTestInfo::NewL(void)
	?Open@CStifTFwIf@@IAEHAAVTDesC16@@@Z @ 27 NONAME ; int CStifTFwIf::Open(class TDesC16 &)
	?Open@CUIStore@@QAEHABVTDesC16@@@Z @ 28 NONAME ; int CUIStore::Open(class TDesC16 const &)
	?PauseTest@CUIEngineContainer@@QAEHXZ @ 29 NONAME ; int CUIEngineContainer::PauseTest(void)
	?PauseTestCase@CStifTFwIf@@IAEHH@Z @ 30 NONAME ; int CStifTFwIf::PauseTestCase(int)
	?PrintProg@CStifTFw@@EAEHPAVCUIEngineContainer@@AAVTTestProgress@@@Z @ 31 NONAME ; int CStifTFw::PrintProg(class CUIEngineContainer *, class TTestProgress &)
	?RemoteMsg@CStifTFw@@EAEHPAVCUIEngineContainer@@ABVTDesC16@@@Z @ 32 NONAME ; int CStifTFw::RemoteMsg(class CUIEngineContainer *, class TDesC16 const &)
	?RemoveFromTestSet@CUIStore@@QAEHABVTDesC16@@ABVCTestInfo@@@Z @ 33 NONAME ; int CUIStore::RemoveFromTestSet(class TDesC16 const &, class CTestInfo const &)
	?RemoveTestCaseFile@CStifTFwIf@@IAEHAAVTDesC16@@0@Z @ 34 NONAME ; int CStifTFwIf::RemoveTestCaseFile(class TDesC16 &, class TDesC16 &)
	?RemoveTestCaseFile@CUIStore@@QAEHABVTDesC16@@0@Z @ 35 NONAME ; int CUIStore::RemoveTestCaseFile(class TDesC16 const &, class TDesC16 const &)
	?RemoveTestModule@CStifTFwIf@@IAEHAAVTDesC16@@@Z @ 36 NONAME ; int CStifTFwIf::RemoveTestModule(class TDesC16 &)
	?RemoveTestModule@CUIStore@@QAEHABVTDesC16@@@Z @ 37 NONAME ; int CUIStore::RemoveTestModule(class TDesC16 const &)
	?RemoveTestSet@CUIStore@@QAEHABVTDesC16@@@Z @ 38 NONAME ; int CUIStore::RemoveTestSet(class TDesC16 const &)
	?ResumeTest@CUIEngineContainer@@QAEHXZ @ 39 NONAME ; int CUIEngineContainer::ResumeTest(void)
	?ResumeTestCase@CStifTFwIf@@IAEHH@Z @ 40 NONAME ; int CStifTFwIf::ResumeTestCase(int)
	?SaveTestSet@CUIStore@@QAEHABVTDesC16@@@Z @ 41 NONAME ; int CUIStore::SaveTestSet(class TDesC16 const &)
	?SetAttribute@CStifTFwIf@@IAEHW4TAttribute@@ABVTDesC16@@@Z @ 42 NONAME ; int CStifTFwIf::SetAttribute(enum TAttribute, class TDesC16 const &)
	?StartTestCase@CStifTFwIf@@IAEHAAHABVCTestInfo@@@Z @ 43 NONAME ; int CStifTFwIf::StartTestCase(int &, class CTestInfo const &)
	?StartTestCase@CUIStore@@QAEHABVCTestInfo@@AAH@Z @ 44 NONAME ; int CUIStore::StartTestCase(class CTestInfo const &, int &)
	?StartTestSet@CUIStore@@QAEHABVCTestSetInfo@@AAHW4TSetType@CStartedTestSet@@@Z @ 45 NONAME ; int CUIStore::StartTestSet(class CTestSetInfo const &, int &, enum CStartedTestSet::TSetType)
	?StartedTestCaseL@CUIStore@@QAEAAVCStartedTestCase@@H@Z @ 46 NONAME ; class CStartedTestCase & CUIStore::StartedTestCaseL(int)
	?StartedTestCases@CUIStore@@QAEHAAV?$RRefArray@VCStartedTestCase@@@@HABVTDesC16@@1@Z @ 47 NONAME ; int CUIStore::StartedTestCases(class RRefArray<class CStartedTestCase> &, int, class TDesC16 const &, class TDesC16 const &)
	?StartedTestSetL@CUIStore@@QAEAAVCStartedTestSet@@H@Z @ 48 NONAME ; class CStartedTestSet & CUIStore::StartedTestSetL(int)
	?StartedTestSets@CUIStore@@QAEHAAV?$RRefArray@VCStartedTestSet@@@@H@Z @ 49 NONAME ; int CUIStore::StartedTestSets(class RRefArray<class CStartedTestSet> &, int)
	?TestCaseFiles@CUIStore@@QAEHAAV?$RRefArray@VTDesC16@@@@ABVTDesC16@@@Z @ 50 NONAME ; int CUIStore::TestCaseFiles(class RRefArray<class TDesC16> &, class TDesC16 const &)
	?TestCases@CUIStore@@QAEHAAV?$RRefArray@VCTestInfo@@@@ABVTDesC16@@1@Z @ 51 NONAME ; int CUIStore::TestCases(class RRefArray<class CTestInfo> &, class TDesC16 const &, class TDesC16 const &)
	?TestExecuted@CStifTFw@@EAEXPAVCUIEngineContainer@@AAVTFullTestResult@@@Z @ 52 NONAME ; void CStifTFw::TestExecuted(class CUIEngineContainer *, class TFullTestResult &)
	?TestSetL@CUIStore@@QAEABVCTestSetInfo@@ABVTDesC16@@@Z @ 53 NONAME ; class CTestSetInfo const & CUIStore::TestSetL(class TDesC16 const &)
	?TestSets@CUIStore@@QAEHAAV?$RRefArray@VCTestSetInfo@@@@@Z @ 54 NONAME ; int CUIStore::TestSets(class RRefArray<class CTestSetInfo> &)
	?UIEngineContainer@CStartedTestCase@@QBEAAVCUIEngineContainer@@XZ @ 55 NONAME ; class CUIEngineContainer & CStartedTestCase::UIEngineContainer(void) const
	?UIStore@CUIStoreIf@@QAEAAVCUIStore@@XZ @ 56 NONAME ; class CUIStore & CUIStoreIf::UIStore(void)
	?StartTestSet@CUIStore@@QAEHABVCTestSetInfo@@AAHW4TSetType@CStartedTestSet@@H@Z @ 57 NONAME ; int CUIStore::StartTestSet(class CTestSetInfo const &, int &, enum CStartedTestSet::TSetType, int)
	?UpdateTestSet@CUIStore@@QAEHAAVCTestSetInfo@@@Z @ 58 NONAME ; int CUIStore::UpdateTestSet(class CTestSetInfo &)
	?ReadFiltersL@CUIStore@@QAEXAAV?$RPointerArray@VTDesC16@@@@@Z @ 59 NONAME ; void CUIStore::ReadFiltersL(class RPointerArray<class TDesC16> &)
	?GetTestSetsList@CUIStore@@QAEHAAV?$RRefArray@VTDesC16@@@@@Z @ 60 NONAME ; int CUIStore::GetTestSetsList(class RRefArray<class TDesC16> &)
	?SaveTestSet2@CUIStore@@QAEHAAVTDes16@@@Z @ 61 NONAME ; int CUIStore::SaveTestSet2(class TDes16 &)
	?UnloadTestSet@CUIStore@@QAEHABVTDesC16@@@Z @ 62 NONAME ; int CUIStore::UnloadTestSet(class TDesC16 const &)

