EXPORTS
	_ZN10CAtsLogger10TestCaseNaEv @ 1 NONAME
	_ZN10CAtsLogger11DebugOutputERK7TDesC16 @ 2 NONAME
	_ZN10CAtsLogger11EndTestSetLEv @ 3 NONAME
	_ZN10CAtsLogger12EndTestCaseLEv @ 4 NONAME
	_ZN10CAtsLogger12ErrorMessageERKi @ 5 NONAME
	_ZN10CAtsLogger13BeginTestSetLERK7TDesC16S2_S2_S2_ @ 6 NONAME
	_ZN10CAtsLogger14BeginTestCaseLERK7TDesC16S2_S2_S2_ @ 7 NONAME
	_ZN10CAtsLogger14BeginTestCaseLERK7TDesC16iS2_S2_ @ 8 NONAME
	_ZN10CAtsLogger14EndTestReportLEv @ 9 NONAME
	_ZN10CAtsLogger14SaveForRebootLEv @ 10 NONAME
	_ZN10CAtsLogger14SetDebugOutputEi @ 11 NONAME
	_ZN10CAtsLogger14SetIndentationEi @ 12 NONAME
	_ZN10CAtsLogger14TestCaseFailedEv @ 13 NONAME
	_ZN10CAtsLogger14TestCasePassedEv @ 14 NONAME
	_ZN10CAtsLogger15TestCaseSkippedEv @ 15 NONAME
	_ZN10CAtsLogger16BeginTestReportLEv @ 16 NONAME
	_ZN10CAtsLogger16SetFullReportingEi @ 17 NONAME
	_ZN10CAtsLogger18SetTestCaseResultLERK7TDesC16 @ 18 NONAME
	_ZN10CAtsLogger18SetTestCaseResultLEi @ 19 NONAME
	_ZN10CAtsLogger20BeginTestCaseReportLERK7TDesC16S2_RK5TTimeS2_S2_ @ 20 NONAME
	_ZN10CAtsLogger20BeginTestCaseReportLERK7TDesC16iRK5TTimeS2_S2_ @ 21 NONAME
	_ZN10CAtsLogger20ContinueAfterRebootLEv @ 22 NONAME
	_ZN10CAtsLogger4NewLERK7TDesC16i @ 23 NONAME
	_ZN10CAtsLogger6CloseLEv @ 24 NONAME
	_ZN10CAtsLogger6DebugLE11TRefByValueIK7TDesC16Ez @ 25 NONAME
	_ZN10CAtsLogger6DebugLERK7TDesC16 @ 26 NONAME
	_ZN10CAtsLogger6ErrorLE11TRefByValueIK7TDesC16Ez @ 27 NONAME
	_ZN10CAtsLogger6ErrorLERK7TDesC16 @ 28 NONAME
	_ZN10CAtsLogger7IsValidEv @ 29 NONAME
	_ZN10CAtsLogger7RawLogLE11TRefByValueIK7TDesC16Ez @ 30 NONAME
	_ZN10CAtsLogger7RawLogLERK7TDesC16 @ 31 NONAME
	_ZN10CAtsLogger8CommentLE11TRefByValueIK7TDesC16Ez @ 32 NONAME
	_ZN10CAtsLogger8CommentLERK7TDesC16 @ 33 NONAME
	_ZN10CAtsLogger8WarningLE11TRefByValueIK7TDesC16Ez @ 34 NONAME
	_ZN10CAtsLogger8WarningLERK7TDesC16 @ 35 NONAME
	_ZN10CAtsLoggerD0Ev @ 36 NONAME
	_ZN10CAtsLoggerD1Ev @ 37 NONAME
	_ZN10CAtsLoggerD2Ev @ 38 NONAME
	_ZTI10CAtsLogger @ 39 NONAME ; #<TI>#
	_ZTV10CAtsLogger @ 40 NONAME ; #<VT>#

