EXPORTS
	_ZN10CStifTFwIf10AtsReceiveERK7TDesC16 @ 1 NONAME
	_ZN10CStifTFwIf12GetTestCasesER13RPointerArrayI9CTestInfoER7TDesC16S5_ @ 2 NONAME
	_ZN10CStifTFwIf12SetAttributeE10TAttributeRK7TDesC16 @ 3 NONAME
	_ZN10CStifTFwIf13AddTestModuleER7TDesC16S1_ @ 4 NONAME
	_ZN10CStifTFwIf13PauseTestCaseEi @ 5 NONAME
	_ZN10CStifTFwIf13StartTestCaseERiRK9CTestInfo @ 6 NONAME
	_ZN10CStifTFwIf14CancelTestCaseEi @ 7 NONAME
	_ZN10CStifTFwIf14ResumeTestCaseEi @ 8 NONAME
	_ZN10CStifTFwIf15AddTestCaseFileER7TDesC16S1_ @ 9 NONAME
	_ZN10CStifTFwIf16RemoveTestModuleER7TDesC16 @ 10 NONAME
	_ZN10CStifTFwIf18RemoveTestCaseFileER7TDesC16S1_ @ 11 NONAME
	_ZN10CStifTFwIf4OpenER7TDesC16 @ 12 NONAME
	_ZN10CStifTFwIf5CloseEv @ 13 NONAME
	_ZN10CStifTFwIfC2Ev @ 14 NONAME
	_ZN10CStifTFwIfD0Ev @ 15 NONAME
	_ZN10CStifTFwIfD1Ev @ 16 NONAME
	_ZN10CStifTFwIfD2Ev @ 17 NONAME
	_ZN10CUIStoreIf10ConstructLEv @ 18 NONAME
	_ZN10CUIStoreIf7UIStoreEv @ 19 NONAME
	_ZN10CUIStoreIfC1Ev @ 20 NONAME
	_ZN10CUIStoreIfC2Ev @ 21 NONAME
	_ZN10CUIStoreIfD0Ev @ 22 NONAME
	_ZN10CUIStoreIfD1Ev @ 23 NONAME
	_ZN10CUIStoreIfD2Ev @ 24 NONAME
	_ZN18CUIEngineContainer10CancelTestEv @ 25 NONAME
	_ZN18CUIEngineContainer10ResumeTestEv @ 26 NONAME
	_ZN18CUIEngineContainer9PauseTestEv @ 27 NONAME
	_ZN8CStifTFw12TestExecutedEP18CUIEngineContainerR15TFullTestResult @ 28 NONAME
	_ZN8CStifTFw13GoingToRebootEP18CUIEngineContainerR14TRequestStatus @ 29 NONAME
	_ZN8CStifTFw9PrintProgEP18CUIEngineContainerR13TTestProgress @ 30 NONAME
	_ZN8CStifTFw9RemoteMsgEP18CUIEngineContainerRK7TDesC16 @ 31 NONAME
	_ZN8CUIStore11LoadTestSetERK7TDesC16 @ 32 NONAME
	_ZN8CUIStore11SaveTestSetERK7TDesC16 @ 33 NONAME
	_ZN8CUIStore12AbortTestSetER15CStartedTestSet @ 34 NONAME
	_ZN8CUIStore12AddToTestSetERK7TDesC16RK9CTestInfo @ 35 NONAME
	_ZN8CUIStore12StartTestSetERK12CTestSetInfoRiN15CStartedTestSet8TSetTypeE @ 36 NONAME
	_ZN8CUIStore13AddTestModuleERK7TDesC16S2_ @ 37 NONAME
	_ZN8CUIStore13CreateTestSetERK7TDesC16 @ 38 NONAME
	_ZN8CUIStore13RemoveTestSetERK7TDesC16 @ 39 NONAME
	_ZN8CUIStore13StartTestCaseERK9CTestInfoRi @ 40 NONAME
	_ZN8CUIStore13TestCaseFilesER9RRefArrayI7TDesC16ERKS1_ @ 41 NONAME
	_ZN8CUIStore14ListAllModulesER13RPointerArrayI7TDesC16E @ 42 NONAME
	_ZN8CUIStore14LoadAllModulesEv @ 43 NONAME
	_ZN8CUIStore15AddTestCaseFileERK7TDesC16S2_ @ 44 NONAME
	_ZN8CUIStore15InsertToTestSetERK7TDesC16RK9CTestInfoi @ 45 NONAME
	_ZN8CUIStore15StartedTestSetLEi @ 46 NONAME
	_ZN8CUIStore15StartedTestSetsER9RRefArrayI15CStartedTestSetEi @ 47 NONAME
	_ZN8CUIStore16RemoveTestModuleERK7TDesC16 @ 48 NONAME
	_ZN8CUIStore16StartedTestCaseLEi @ 49 NONAME
	_ZN8CUIStore16StartedTestCasesER9RRefArrayI16CStartedTestCaseEiRK7TDesC16S6_ @ 50 NONAME
	_ZN8CUIStore17RemoveFromTestSetERK7TDesC16RK9CTestInfo @ 51 NONAME
	_ZN8CUIStore18LoadSavedTestCasesEv @ 52 NONAME
	_ZN8CUIStore18RemoveTestCaseFileERK7TDesC16S2_ @ 53 NONAME
	_ZN8CUIStore4OpenERK7TDesC16 @ 54 NONAME
	_ZN8CUIStore5CloseEv @ 55 NONAME
	_ZN8CUIStore7ModulesER9RRefArrayI7TDesC16E @ 56 NONAME
	_ZN8CUIStore8TestSetLERK7TDesC16 @ 57 NONAME
	_ZN8CUIStore8TestSetsER9RRefArrayI12CTestSetInfoE @ 58 NONAME
	_ZN8CUIStore9TestCasesER9RRefArrayI9CTestInfoERK7TDesC16S6_ @ 59 NONAME
	_ZN9CTestInfo4NewLEv @ 60 NONAME
	_ZNK16CStartedTestCase17UIEngineContainerEv @ 61 NONAME
	_ZTI10CStifTFwIf @ 62 NONAME ; #<TI>#
	_ZTI10CUIStoreIf @ 63 NONAME ; #<TI>#
	_ZTI12CTestSetInfo @ 64 NONAME ; #<TI>#
	_ZTI13CTestProgress @ 65 NONAME ; #<TI>#
	_ZTI13CUIStorePopup @ 66 NONAME ; #<TI>#
	_ZTI14CUIEngineEvent @ 67 NONAME ; #<TI>#
	_ZTI15CStartedTestSet @ 68 NONAME ; #<TI>#
	_ZTI15CUIEngineRemote @ 69 NONAME ; #<TI>#
	_ZTI15CUIEngineRunner @ 70 NONAME ; #<TI>#
	_ZTI16CStartedTestCase @ 71 NONAME ; #<TI>#
	_ZTI16CUIEnginePrinter @ 72 NONAME ; #<TI>#
	_ZTI18CUIEngineContainer @ 73 NONAME ; #<TI>#
	_ZTI21CUIEngineErrorPrinter @ 74 NONAME ; #<TI>#
	_ZTI8CStifTFw @ 75 NONAME ; #<TI>#
	_ZTI8CUIStore @ 76 NONAME ; #<TI>#
	_ZTI9CTestInfo @ 77 NONAME ; #<TI>#
	_ZTI9CUIEngine @ 78 NONAME ; #<TI>#
	_ZTV10CStifTFwIf @ 79 NONAME ; #<VT>#
	_ZTV10CUIStoreIf @ 80 NONAME ; #<VT>#
	_ZTV12CTestSetInfo @ 81 NONAME ; #<VT>#
	_ZTV13CTestProgress @ 82 NONAME ; #<VT>#
	_ZTV13CUIStorePopup @ 83 NONAME ; #<VT>#
	_ZTV14CUIEngineEvent @ 84 NONAME ; #<VT>#
	_ZTV15CStartedTestSet @ 85 NONAME ; #<VT>#
	_ZTV15CUIEngineRemote @ 86 NONAME ; #<VT>#
	_ZTV15CUIEngineRunner @ 87 NONAME ; #<VT>#
	_ZTV16CStartedTestCase @ 88 NONAME ; #<VT>#
	_ZTV16CUIEnginePrinter @ 89 NONAME ; #<VT>#
	_ZTV18CUIEngineContainer @ 90 NONAME ; #<VT>#
	_ZTV21CUIEngineErrorPrinter @ 91 NONAME ; #<VT>#
	_ZTV8CStifTFw @ 92 NONAME ; #<VT>#
	_ZTV8CUIStore @ 93 NONAME ; #<VT>#
	_ZTV9CTestInfo @ 94 NONAME ; #<VT>#
	_ZTV9CUIEngine @ 95 NONAME ; #<VT>#
	_ZN8CUIStore12StartTestSetERK12CTestSetInfoRiN15CStartedTestSet8TSetTypeEi @ 96 NONAME
	_ZN8CUIStore13UpdateTestSetER12CTestSetInfo @ 97 NONAME
	_ZN8CUIStore12ReadFiltersLER13RPointerArrayI7TDesC16E @ 98 NONAME
	_ZN8CUIStore15GetTestSetsListER9RRefArrayI7TDesC16E @ 99 NONAME
	_ZN8CUIStore12SaveTestSet2ER6TDes16 @ 100 NONAME
	_ZN8CUIStore13UnloadTestSetERK7TDesC16 @ 101 NONAME

