EXPORTS
	??0RSettingServer@@QAE@XZ @ 1 NONAME ; public: __thiscall RSettingServer::RSettingServer(void)
	??1CSTIFTestFrameworkSettings@@UAE@XZ @ 2 NONAME ; public: virtual __thiscall CSTIFTestFrameworkSettings::~CSTIFTestFrameworkSettings(void)
	?AddConfigFile@RTestEngine@@QAEHABV?$TBuf@$0IA@@@ABV?$TBuf@$0BAA@@@@Z @ 3 NONAME ; public: int __thiscall RTestEngine::AddConfigFile(class TBuf<128> const &,class TBuf<256> const &)
	?AddTestModule@RTestEngine@@QAEHABV?$TBuf@$0IA@@@ABV?$TBuf@$0BAA@@@@Z @ 4 NONAME ; public: int __thiscall RTestEngine::AddTestModule(class TBuf<128> const &,class TBuf<256> const &)
	?CancelAsyncRequest@RTestCase@@QAEHH@Z @ 5 NONAME ; public: int __thiscall RTestCase::CancelAsyncRequest(int)
	?CancelAsyncRequest@RTestEngine@@QAEHH@Z @ 6 NONAME ; public: int __thiscall RTestEngine::CancelAsyncRequest(int)
	?Close@RSettingServer@@QAEXXZ @ 7 NONAME ; public: void __thiscall RSettingServer::Close(void)
	?Close@RTestCase@@QAEXXZ @ 8 NONAME ; public: void __thiscall RTestCase::Close(void)
	?Close@RTestEngine@@QAEXXZ @ 9 NONAME ; public: void __thiscall RTestEngine::Close(void)
	?Close@RTestEngineServer@@QAEXXZ @ 10 NONAME ; public: void __thiscall RTestEngineServer::Close(void)
	?Connect@RSettingServer@@QAEHXZ @ 11 NONAME ; public: int __thiscall RSettingServer::Connect(void)
	?Connect@RTestEngineServer@@QAEHXZ @ 12 NONAME ; public: int __thiscall RTestEngineServer::Connect(void)
	?EnumerateTestCases@RTestEngine@@QAEXAAV?$TPckgBuf@H@@AAVTRequestStatus@@@Z @ 13 NONAME ; public: void __thiscall RTestEngine::EnumerateTestCases(class TPckgBuf<int> &,class TRequestStatus &)
	?ErrorNotification@RTestEngine@@QAEXAAV?$TPckg@VTErrorNotification@@@@AAVTRequestStatus@@@Z @ 14 NONAME ; public: void __thiscall RTestEngine::ErrorNotification(class TPckg<class TErrorNotification> &,class TRequestStatus &)
	?Event@RTestEngine@@QAEXAAV?$TPckg@VTEventIf@@@@AAVTRequestStatus@@@Z @ 15 NONAME ; public: void __thiscall RTestEngine::Event(class TPckg<class TEventIf> &,class TRequestStatus &)
	?GetBooleanSettingsL@CSTIFTestFrameworkSettings@@QAEHPAVCStifSectionParser@@VTPtrC16@@AAH@Z @ 16 NONAME ; public: int __thiscall CSTIFTestFrameworkSettings::GetBooleanSettingsL(class CStifSectionParser *,class TPtrC16,int &)
	?GetFileSetting@CSTIFTestFrameworkSettings@@QAEHPAVCStifSectionParser@@VTPtrC16@@AAV3@@Z @ 17 NONAME ; public: int __thiscall CSTIFTestFrameworkSettings::GetFileSetting(class CStifSectionParser *,class TPtrC16,class TPtrC16 &)
	?GetFormatL@CSTIFTestFrameworkSettings@@QAEHPAVCStifSectionParser@@VTPtrC16@@AAW4TLoggerType@CStifLogger@@@Z @ 18 NONAME ; public: int __thiscall CSTIFTestFrameworkSettings::GetFormatL(class CStifSectionParser *,class TPtrC16,enum CStifLogger::TLoggerType &)
	?GetLoggerSettings@RSettingServer@@QAEHAAUTLoggerSettings@@@Z @ 19 NONAME ; public: int __thiscall RSettingServer::GetLoggerSettings(struct TLoggerSettings &)
	?GetOutputL@CSTIFTestFrameworkSettings@@QAEHPAVCStifSectionParser@@VTPtrC16@@AAW4TOutput@CStifLogger@@@Z @ 20 NONAME ; public: int __thiscall CSTIFTestFrameworkSettings::GetOutputL(class CStifSectionParser *,class TPtrC16,enum CStifLogger::TOutput &)
	?GetOverwriteL@CSTIFTestFrameworkSettings@@QAEHPAVCStifSectionParser@@VTPtrC16@@AAH@Z @ 21 NONAME ; public: int __thiscall CSTIFTestFrameworkSettings::GetOverwriteL(class CStifSectionParser *,class TPtrC16,int &)
	?GetReportModeL@CSTIFTestFrameworkSettings@@QAEHPAVCStifSectionParser@@VTPtrC16@@AAI@Z @ 22 NONAME ; public: int __thiscall CSTIFTestFrameworkSettings::GetReportModeL(class CStifSectionParser *,class TPtrC16,unsigned int &)
	?GetTestCases@RTestEngine@@QAEHAAV?$CFixedFlatArray@VTTestInfo@@@@@Z @ 23 NONAME ; public: int __thiscall RTestEngine::GetTestCases(class CFixedFlatArray<class TTestInfo> &)
	?NewL@CSTIFTestFrameworkSettings@@SAPAV1@XZ @ 24 NONAME ; public: static class CSTIFTestFrameworkSettings * __cdecl CSTIFTestFrameworkSettings::NewL(void)
	?NotifyProgress@RTestCase@@QAEXAAV?$TPckg@VTTestProgress@@@@AAVTRequestStatus@@@Z @ 25 NONAME ; public: void __thiscall RTestCase::NotifyProgress(class TPckg<class TTestProgress> &,class TRequestStatus &)
	?NotifyRemoteMsg@RTestCase@@QAEHAAVTDes8@@W4TStifCommand@@@Z @ 26 NONAME ; public: int __thiscall RTestCase::NotifyRemoteMsg(class TDes8 &,enum TStifCommand)
	?NotifyRemoteType@RTestCase@@QAEXAAV?$TPckg@W4TStifCommand@@@@AAV?$TPckg@H@@AAVTRequestStatus@@@Z @ 27 NONAME ; public: void __thiscall RTestCase::NotifyRemoteType(class TPckg<enum TStifCommand> &,class TPckg<int> &,class TRequestStatus &)
	?Open@RTestCase@@QAEHAAVRTestEngineServer@@ABV?$TPckg@VTTestInfo@@@@@Z @ 28 NONAME ; public: int __thiscall RTestCase::Open(class RTestEngineServer &,class TPckg<class TTestInfo> const &)
	?Open@RTestEngine@@QAEHAAVRTestEngineServer@@ABV?$TBuf@$0BAA@@@@Z @ 29 NONAME ; public: int __thiscall RTestEngine::Open(class RTestEngineServer &,class TBuf<256> const &)
	?OpenLoggerSession@RTestEngine@@QAEHAAVRTestEngineServer@@AAUTLoggerSettings@@@Z @ 30 NONAME ; public: int __thiscall RTestEngine::OpenLoggerSession(class RTestEngineServer &,struct TLoggerSettings &)
	?Pause@RTestCase@@QAEHXZ @ 31 NONAME ; public: int __thiscall RTestCase::Pause(void)
	?ReadLoggerSettingsFromIniFile@RSettingServer@@QAEHAAUTLoggerSettings@@@Z @ 32 NONAME ; public: int __thiscall RSettingServer::ReadLoggerSettingsFromIniFile(struct TLoggerSettings &)
	?RemoveConfigFile@RTestEngine@@QAEHABV?$TBuf@$0IA@@@ABV?$TBuf@$0BAA@@@@Z @ 33 NONAME ; public: int __thiscall RTestEngine::RemoveConfigFile(class TBuf<128> const &,class TBuf<256> const &)
	?RemoveTestModule@RTestEngine@@QAEHABV?$TBuf@$0IA@@@@Z @ 34 NONAME ; public: int __thiscall RTestEngine::RemoveTestModule(class TBuf<128> const &)
	?Resume@RTestCase@@QAEHXZ @ 35 NONAME ; public: int __thiscall RTestCase::Resume(void)
	?RunTestCase@RTestCase@@QAEXAAV?$TPckg@VTFullTestResult@@@@AAVTRequestStatus@@@Z @ 36 NONAME ; public: void __thiscall RTestCase::RunTestCase(class TPckg<class TFullTestResult> &,class TRequestStatus &)
	?SetAttribute@RTestEngine@@QAEHW4TAttribute@@ABVTDesC16@@@Z @ 37 NONAME ; public: int __thiscall RTestEngine::SetAttribute(enum TAttribute,class TDesC16 const &)
	?SetIniFileInformation@RSettingServer@@QAEHABV?$TBuf@$0BAA@@@@Z @ 38 NONAME ; public: int __thiscall RSettingServer::SetIniFileInformation(class TBuf<256> const &)
	?SetNewIniFileSetting@RSettingServer@@QAEHAAV?$TBuf@$0IA@@@@Z @ 39 NONAME ; public: int __thiscall RSettingServer::SetNewIniFileSetting(class TBuf<128> &)
	?StartEngine@@YAHXZ @ 40 NONAME ; int __cdecl StartEngine(void)
	?StartNewServer@@YAHAAV?$TBuf@$0IA@@@@Z @ 41 NONAME ; int __cdecl StartNewServer(class TBuf<128> &)
	?Version@RSettingServer@@QBE?AVTVersion@@XZ @ 42 NONAME ; public: class TVersion __thiscall RSettingServer::Version(void)const 
	?Version@RTestEngineServer@@QBE?AVTVersion@@XZ @ 43 NONAME ; public: class TVersion __thiscall RTestEngineServer::Version(void)const 
	??1CTestModuleList@@UAE@XZ @ 44 NONAME ; CTestModuleList::~CTestModuleList(void)
	?AddCfgFile@CTestModuleInfo@@QAEHAAVTDesC16@@@Z @ 45 NONAME ; int CTestModuleInfo::AddCfgFile(class TDesC16 &)
	?AddTestModule@CTestModuleList@@QAEHAAVTDesC16@@@Z @ 46 NONAME ; int CTestModuleList::AddTestModule(class TDesC16 &)
	?Count@CTestModuleList@@QAEHXZ @ 47 NONAME ; int CTestModuleList::Count(void)
	?CountCfgFiles@CTestModuleInfo@@QAEHXZ @ 48 NONAME ; int CTestModuleInfo::CountCfgFiles(void)
	?GetCfgFileName@CTestModuleInfo@@QAEHHAAVTDes16@@@Z @ 49 NONAME ; int CTestModuleInfo::GetCfgFileName(int, class TDes16 &)
	?GetIniFileName@CTestModuleInfo@@QAEHAAVTDes16@@@Z @ 50 NONAME ; int CTestModuleInfo::GetIniFileName(class TDes16 &)
	?GetModule@CTestModuleList@@QAEPAVCTestModuleInfo@@AAVTDesC16@@@Z @ 51 NONAME ; class CTestModuleInfo * CTestModuleList::GetModule(class TDesC16 &)
	?GetModule@CTestModuleList@@QAEPAVCTestModuleInfo@@H@Z @ 52 NONAME ; class CTestModuleInfo * CTestModuleList::GetModule(int)
	?GetModuleName@CTestModuleInfo@@QAEHAAVTDes16@@@Z @ 53 NONAME ; int CTestModuleInfo::GetModuleName(class TDes16 &)
	?GetUncheckedCfgFile@CTestModuleList@@QAEPAVCTestCaseFileInfo@@XZ @ 54 NONAME ; class CTestCaseFileInfo * CTestModuleList::GetUncheckedCfgFile(void)
	?NewL@CTestModuleList@@SAPAV1@PAVCStifLogger@@@Z @ 55 NONAME ; class CTestModuleList * CTestModuleList::NewL(class CStifLogger *)
	?SetIniFile@CTestModuleInfo@@QAEHAAVTDesC16@@@Z @ 56 NONAME ; int CTestModuleInfo::SetIniFile(class TDesC16 &)
	?GetCfgFileName@CTestCaseFileInfo@@QAEHAAVTDes16@@@Z @ 57 NONAME ; int CTestCaseFileInfo::GetCfgFileName(class TDes16 &)
	?SetChecked@CTestCaseFileInfo@@QAEXXZ @ 58 NONAME ; void CTestCaseFileInfo::SetChecked(void)
	?GetEngineSettings@RSettingServer@@QAEHAAUTEngineSettings@@@Z @ 59 NONAME ; int RSettingServer::GetEngineSettings(struct TEngineSettings &)
	?StoreEngineSettings@RSettingServer@@QAEHAAUTEngineSettings@@@Z @ 60 NONAME ; int RSettingServer::StoreEngineSettings(struct TEngineSettings &)
	?GetFormatL@CSTIFTestFrameworkSettings@@QAEHPAVCStifSectionParser@@VTPtrC16@@AAW4TLoggerType@CStifLogger@@AAH@Z @ 61 NONAME ; int CSTIFTestFrameworkSettings::GetFormatL(class CStifSectionParser *, class TPtrC16, enum CStifLogger::TLoggerType &, int &)
	?AddTestCaseResultToTestReport@RTestEngine@@QAEHABVTTestInfo@@ABVTFullTestResult@@H@Z @ 62 NONAME ; int RTestEngine::AddTestCaseResultToTestReport(class TTestInfo const &, class TFullTestResult const &, int)
	?RunTestCase@RTestCase@@QAEXAAV?$TPckg@VTFullTestResult@@@@ABVTDesC16@@AAVTRequestStatus@@@Z @ 63 NONAME ; void RTestCase::RunTestCase(class TPckg<class TFullTestResult> &, class TDesC16 const &, class TRequestStatus &)

