EXPORTS
	_ZN14CMemSpyApiHeap11BaseAddressEv @ 1 NONAME
	_ZN14CMemSpyApiHeap11BiggestFreeEv @ 2 NONAME
	_ZN14CMemSpyApiHeap11HeaderSizeAEv @ 3 NONAME
	_ZN14CMemSpyApiHeap11HeaderSizeFEv @ 4 NONAME
	_ZN14CMemSpyApiHeap12FreeOverheadEv @ 5 NONAME
	_ZN14CMemSpyApiHeap13FragmentationEv @ 6 NONAME
	_ZN14CMemSpyApiHeap13TotalOverheadEv @ 7 NONAME
	_ZN14CMemSpyApiHeap14SlackFreeSpaceEv @ 8 NONAME
	_ZN14CMemSpyApiHeap16AllocationsCountEv @ 9 NONAME
	_ZN14CMemSpyApiHeap16TotalAllocationsEv @ 10 NONAME
	_ZN14CMemSpyApiHeap17BiggestAllocationEv @ 11 NONAME
	_ZN14CMemSpyApiHeap18AllocationOverheadEv @ 12 NONAME
	_ZN14CMemSpyApiHeap21DebugAllocatorLibraryEv @ 13 NONAME
	_ZN14CMemSpyApiHeap4SizeEv @ 14 NONAME
	_ZN14CMemSpyApiHeap4TypeEv @ 15 NONAME
	_ZN14CMemSpyApiHeap6SharedEv @ 16 NONAME
	_ZN14CMemSpyApiHeap8OverheadEv @ 17 NONAME
	_ZN14CMemSpyApiHeap9ChunkSizeEv @ 18 NONAME
	_ZN14CMemSpyApiHeap9FreeCountEv @ 19 NONAME
	_ZN14CMemSpyApiHeap9MaxLengthEv @ 20 NONAME
	_ZN14CMemSpyApiHeap9MinLengthEv @ 21 NONAME
	_ZN14CMemSpyApiHeap9TotalFreeEv @ 22 NONAME
	_ZN14CMemSpyApiHeapD1Ev @ 23 NONAME
	_ZN14CMemSpyApiHeapD2Ev @ 24 NONAME
	_ZN14RMemSpySession10EndProcessE10TProcessId14TMemSpyEndType @ 25 NONAME
	_ZN14RMemSpySession11GetThreadsLE10TProcessIdR6RArrayIP16CMemSpyApiThreadE9TSortType @ 26 NONAME
	_ZN14RMemSpySession13GetProcessesLER6RArrayIP17CMemSpyApiProcessE9TSortType @ 27 NONAME
	_ZN14RMemSpySession14SwitchToThreadE9TThreadIdi @ 28 NONAME
	_ZN14RMemSpySession15SwitchToProcessE10TProcessIdi @ 29 NONAME
	_ZN14RMemSpySession16GetKernelObjectsER6RArrayIP22CMemSpyApiKernelObjectE @ 30 NONAME
	_ZN14RMemSpySession20GetKernelObjectItemsER6RArrayIP26CMemSpyApiKernelObjectItemE26TMemSpyDriverContainerType @ 31 NONAME
	_ZN14RMemSpySession31ThreadSystemPermanentOrCriticalE9TThreadIdi @ 32 NONAME
	_ZN14RMemSpySession32ProcessSystemPermanentOrCriticalE10TProcessIdi @ 33 NONAME
	_ZN14RMemSpySession7ConnectEv @ 34 NONAME
	_ZN14RMemSpySession7GetHeapEv @ 35 NONAME
	_ZN14RMemSpySession9EndThreadE9TThreadId14TMemSpyEndType @ 36 NONAME
	_ZN14RMemSpySessionC1Ev @ 37 NONAME
	_ZN14RMemSpySessionC2Ev @ 38 NONAME
	_ZN16CMemSpyApiThreadD1Ev @ 39 NONAME
	_ZN16CMemSpyApiThreadD2Ev @ 40 NONAME
	_ZN17CMemSpyApiProcessD1Ev @ 41 NONAME
	_ZN17CMemSpyApiProcessD2Ev @ 42 NONAME
	_ZN22CMemSpyApiKernelObjectD1Ev @ 43 NONAME
	_ZN22CMemSpyApiKernelObjectD2Ev @ 44 NONAME
	_ZN26CMemSpyApiKernelObjectItem12OpenChannelsEv @ 45 NONAME
	_ZN26CMemSpyApiKernelObjectItem15AddressOfServerEv @ 46 NONAME
	_ZN26CMemSpyApiKernelObjectItem16AddressOfCodeSegEv @ 47 NONAME
	_ZN26CMemSpyApiKernelObjectItem20AddressOfKernelOwnerEv @ 48 NONAME
	_ZN26CMemSpyApiKernelObjectItem21AddressOfOwningThreadEv @ 49 NONAME
	_ZN26CMemSpyApiKernelObjectItem22AddressOfOwningProcessEv @ 50 NONAME
	_ZN26CMemSpyApiKernelObjectItem26AddressOfDataBssStackChunkEv @ 51 NONAME
	_ZN26CMemSpyApiKernelObjectItemD1Ev @ 52 NONAME
	_ZN26CMemSpyApiKernelObjectItemD2Ev @ 53 NONAME
	_ZNK16CMemSpyApiThread10AttributesEv @ 54 NONAME
	_ZNK16CMemSpyApiThread12RequestCountEv @ 55 NONAME
	_ZNK16CMemSpyApiThread13ThreadHandlesEv @ 56 NONAME
	_ZNK16CMemSpyApiThread14ProcessHandlesEv @ 57 NONAME
	_ZNK16CMemSpyApiThread14ThreadPriorityEv @ 58 NONAME
	_ZNK16CMemSpyApiThread15ProcessPriorityEv @ 59 NONAME
	_ZNK16CMemSpyApiThread17ThreadNumberUsingEv @ 60 NONAME
	_ZNK16CMemSpyApiThread18ProcessNumberUsingEv @ 61 NONAME
	_ZNK16CMemSpyApiThread2IdEv @ 62 NONAME
	_ZNK16CMemSpyApiThread3SIDEv @ 63 NONAME
	_ZNK16CMemSpyApiThread3VIDEv @ 64 NONAME
	_ZNK16CMemSpyApiThread4NameEv @ 65 NONAME
	_ZNK16CMemSpyApiThread6CpuUseEv @ 66 NONAME
	_ZNK16CMemSpyApiThread8ExitTypeEv @ 67 NONAME
	_ZNK16CMemSpyApiThread9ProcessIdEv @ 68 NONAME
	_ZNK17CMemSpyApiProcess10ExitReasonEv @ 69 NONAME
	_ZNK17CMemSpyApiProcess11ThreadCountEv @ 70 NONAME
	_ZNK17CMemSpyApiProcess12ExitCategoryEv @ 71 NONAME
	_ZNK17CMemSpyApiProcess2IdEv @ 72 NONAME
	_ZNK17CMemSpyApiProcess4NameEv @ 73 NONAME
	_ZNK17CMemSpyApiProcess8ExitTypeEv @ 74 NONAME
	_ZNK22CMemSpyApiKernelObject4NameEv @ 75 NONAME
	_ZNK22CMemSpyApiKernelObject4SizeEv @ 76 NONAME
	_ZNK22CMemSpyApiKernelObject4TypeEv @ 77 NONAME
	_ZNK22CMemSpyApiKernelObject5CountEv @ 78 NONAME
	_ZNK26CMemSpyApiKernelObjectItem10AttributesEv @ 79 NONAME
	_ZNK26CMemSpyApiKernelObjectItem10NameDetailEv @ 80 NONAME
	_ZNK26CMemSpyApiKernelObjectItem10ProtectionEv @ 81 NONAME
	_ZNK26CMemSpyApiKernelObjectItem10TimerStateEv @ 82 NONAME
	_ZNK26CMemSpyApiKernelObjectItem11AccessCountEv @ 83 NONAME
	_ZNK26CMemSpyApiKernelObjectItem11NameOfOwnerEv @ 84 NONAME
	_ZNK26CMemSpyApiKernelObjectItem11SessionTypeEv @ 85 NONAME
	_ZNK26CMemSpyApiKernelObjectItem12RestrictionsEv @ 86 NONAME
	_ZNK26CMemSpyApiKernelObjectItem12SecurityZoneEv @ 87 NONAME
	_ZNK26CMemSpyApiKernelObjectItem14SvrSessionTypeEv @ 88 NONAME
	_ZNK26CMemSpyApiKernelObjectItem16ControllingOwnerEv @ 89 NONAME
	_ZNK26CMemSpyApiKernelObjectItem16TotalAccessCountEv @ 90 NONAME
	_ZNK26CMemSpyApiKernelObjectItem2IdEv @ 91 NONAME
	_ZNK26CMemSpyApiKernelObjectItem3TopEv @ 92 NONAME
	_ZNK26CMemSpyApiKernelObjectItem4NameEv @ 93 NONAME
	_ZNK26CMemSpyApiKernelObjectItem4SizeEv @ 94 NONAME
	_ZNK26CMemSpyApiKernelObjectItem4TypeEv @ 95 NONAME
	_ZNK26CMemSpyApiKernelObjectItem5CountEv @ 96 NONAME
	_ZNK26CMemSpyApiKernelObjectItem5OrderEv @ 97 NONAME
	_ZNK26CMemSpyApiKernelObjectItem5StateEv @ 98 NONAME
	_ZNK26CMemSpyApiKernelObjectItem6BottomEv @ 99 NONAME
	_ZNK26CMemSpyApiKernelObjectItem6HandleEv @ 100 NONAME
	_ZNK26CMemSpyApiKernelObjectItem7ChangesEv @ 101 NONAME
	_ZNK26CMemSpyApiKernelObjectItem7MapAttrEv @ 102 NONAME
	_ZNK26CMemSpyApiKernelObjectItem7MaxSizeEv @ 103 NONAME
	_ZNK26CMemSpyApiKernelObjectItem7VersionEv @ 104 NONAME
	_ZNK26CMemSpyApiKernelObjectItem8MapCountEv @ 105 NONAME
	_ZNK26CMemSpyApiKernelObjectItem8MsgCountEv @ 106 NONAME
	_ZNK26CMemSpyApiKernelObjectItem8MsgLimitEv @ 107 NONAME
	_ZNK26CMemSpyApiKernelObjectItem8PriorityEv @ 108 NONAME
	_ZNK26CMemSpyApiKernelObjectItem8StartPosEv @ 109 NONAME
	_ZNK26CMemSpyApiKernelObjectItem8UniqueIDEv @ 110 NONAME
	_ZNK26CMemSpyApiKernelObjectItem9ChunkTypeEv @ 111 NONAME
	_ZNK26CMemSpyApiKernelObjectItem9CreatorIdEv @ 112 NONAME
	_ZNK26CMemSpyApiKernelObjectItem9ParseMaskEv @ 113 NONAME
	_ZNK26CMemSpyApiKernelObjectItem9ResettingEv @ 114 NONAME
	_ZNK26CMemSpyApiKernelObjectItem9TimerTypeEv @ 115 NONAME
	_ZNK26CMemSpyApiKernelObjectItem9UnitsMaskEv @ 116 NONAME
	_ZNK26CMemSpyApiKernelObjectItem9WaitCountEv @ 117 NONAME
	_ZN14RMemSpySession18SetThreadPriorityLE9TThreadIdi @ 118 NONAME
	_ZN14RMemSpySession19GetProcessIdByNameLERK7TDesC16 @ 119 NONAME
	_ZN14RMemSpySession20OutputKernelObjectsLE17TMemSpyOutputType @ 120 NONAME
	_ZN14RMemSpySession21OutputKernelHeapDataLE17TMemSpyOutputType @ 121 NONAME
	_ZN14RMemSpySession21OutputThreadCellListLE17TMemSpyOutputType9TThreadId @ 122 NONAME
	_ZN14RMemSpySession21OutputThreadHeapDataLE17TMemSpyOutputType9TThreadId @ 123 NONAME
	_ZN14RMemSpySession22OutputCompactHeapInfoLE17TMemSpyOutputType @ 124 NONAME
	_ZN14RMemSpySession23OutputCompactStackInfoLE17TMemSpyOutputType @ 125 NONAME
	_ZN14RMemSpySession14DumpKernelHeapEv @ 126 NONAME
	_ZN14RMemSpySession15GetInfoItemTypeEi9TThreadIdR25TMemSpyThreadInfoItemType @ 127 NONAME
	_ZN14RMemSpySession18GetThreadInfoItemsER6RArrayIP24CMemSpyApiThreadInfoItemE9TThreadId25TMemSpyThreadInfoItemType @ 128 NONAME
	_ZN14RMemSpySession26OutputAllContainerContentsEv @ 129 NONAME
	_ZN24CMemSpyApiThreadInfoItemD1Ev @ 130 NONAME
	_ZN24CMemSpyApiThreadInfoItemD2Ev @ 131 NONAME
	_ZNK17CMemSpyApiProcess3SIDEv @ 132 NONAME
	_ZNK17CMemSpyApiProcess3VIDEv @ 133 NONAME
	_ZNK17CMemSpyApiProcess8PriorityEv @ 134 NONAME
	_ZNK24CMemSpyApiThreadInfoItem5ValueEv @ 135 NONAME
	_ZNK24CMemSpyApiThreadInfoItem7CaptionEv @ 136 NONAME

