EXPORTS
	?CpuUse@CMemSpyApiThread@@QBEHXZ @ 1 NONAME ; int CMemSpyApiThread::CpuUse(void) const
	?Name@CMemSpyApiKernelObjectItem@@QBEABVTDesC8@@XZ @ 2 NONAME ; class TDesC8 const & CMemSpyApiKernelObjectItem::Name(void) const
	?GetThreadInfoItemsL@RMemSpySession@@QAEXAAV?$RArray@PAVCMemSpyApiThreadInfoItem@@@@VTThreadId@@W4TMemSpyThreadInfoItemType@@@Z @ 3 NONAME ; void RMemSpySession::GetThreadInfoItemsL(class RArray<class CMemSpyApiThreadInfoItem *> &, class TThreadId, enum TMemSpyThreadInfoItemType)
	?Description@TMemSpyDeviceWideOperationProgress@@QBEABVTDesC16@@XZ @ 4 NONAME ; class TDesC16 const & TMemSpyDeviceWideOperationProgress::Description(void) const
	?TotalOverhead@CMemSpyApiHeap@@QAEHXZ @ 5 NONAME ; int CMemSpyApiHeap::TotalOverhead(void)
	?OutputDetailedPhoneInfo@RMemSpySession@@QAEXAAVTRequestStatus@@@Z @ 6 NONAME ; void RMemSpySession::OutputDetailedPhoneInfo(class TRequestStatus &)
	?UniqueID@CMemSpyApiKernelObjectItem@@QBEHXZ @ 7 NONAME ; int CMemSpyApiKernelObjectItem::UniqueID(void) const
	?OutputHeapData@RMemSpySession@@QAEXAAVTRequestStatus@@@Z @ 8 NONAME ; void RMemSpySession::OutputHeapData(class TRequestStatus &)
	?GetSwmtCategoriesL@RMemSpySession@@QAEXAAH@Z @ 9 NONAME ; void RMemSpySession::GetSwmtCategoriesL(int &)
	?SessionType@CMemSpyApiKernelObjectItem@@QBE?AW4TIpcSessionType@@XZ @ 10 NONAME ; enum TIpcSessionType CMemSpyApiKernelObjectItem::SessionType(void) const
	?DocName@CMemSpyApiWindowGroup@@QBEABVTDesC16@@XZ @ 11 NONAME ; class TDesC16 const & CMemSpyApiWindowGroup::DocName(void) const
	?ProcessId@CMemSpyApiServer@@QBE?AVTProcessId@@XZ @ 12 NONAME ; class TProcessId CMemSpyApiServer::ProcessId(void) const
	?VID@CMemSpyApiThread@@QBEHXZ @ 13 NONAME ; int CMemSpyApiThread::VID(void) const
	?IsHidden@CMemSpyApiWindowGroup@@QBEHXZ @ 14 NONAME ; int CMemSpyApiWindowGroup::IsHidden(void) const
	?Id@CMemSpyApiEComCategory@@QBE?AVTUid@@XZ @ 15 NONAME ; class TUid CMemSpyApiEComCategory::Id(void) const
	?OutputStackInfoL@RMemSpySession@@QAEXVTThreadId@@@Z @ 16 NONAME ; void RMemSpySession::OutputStackInfoL(class TThreadId)
	?FreeMemory@CMemSpyApiMemoryTrackingCycle@@QBEAB_JXZ @ 17 NONAME ; long long const & CMemSpyApiMemoryTrackingCycle::FreeMemory(void) const
	?ProcessNumberUsing@CMemSpyApiThread@@QBEHXZ @ 18 NONAME ; int CMemSpyApiThread::ProcessNumberUsing(void) const
	?PreviousCycleDiff@CMemSpyApiMemoryTrackingCycle@@QBE_JXZ @ 19 NONAME ; long long CMemSpyApiMemoryTrackingCycle::PreviousCycleDiff(void) const
	?OutputStackDataL@RMemSpySession@@QAEXVTThreadId@@W4TMemSpyDriverDomainType@@@Z @ 20 NONAME ; void RMemSpySession::OutputStackDataL(class TThreadId, enum TMemSpyDriverDomainType)
	?OutputThreadHeapDataL@RMemSpySession@@QAEXVTThreadId@@@Z @ 21 NONAME ; void RMemSpySession::OutputThreadHeapDataL(class TThreadId)
	?ExitType@CMemSpyApiProcess@@QBE?AW4TExitType@@XZ @ 22 NONAME ; enum TExitType CMemSpyApiProcess::ExitType(void) const
	?SwitchOutputToFileL@RMemSpySession@@QAEXABVTDesC16@@@Z @ 23 NONAME ; void RMemSpySession::SwitchOutputToFileL(class TDesC16 const &)
	?OutputHeapCellListing@RMemSpySession@@QAEXAAVTRequestStatus@@@Z @ 24 NONAME ; void RMemSpySession::OutputHeapCellListing(class TRequestStatus &)
	?SetThreadPriorityL@RMemSpySession@@QAEXVTThreadId@@H@Z @ 25 NONAME ; void RMemSpySession::SetThreadPriorityL(class TThreadId, int)
	?Restrictions@CMemSpyApiKernelObjectItem@@QBEIXZ @ 26 NONAME ; unsigned int CMemSpyApiKernelObjectItem::Restrictions(void) const
	?Id@CMemSpyApiKernelObjectItem@@QBEHXZ @ 27 NONAME ; int CMemSpyApiKernelObjectItem::Id(void) const
	?Count@CMemSpyApiKernelObjectItem@@QBEHXZ @ 28 NONAME ; int CMemSpyApiKernelObjectItem::Count(void) const
	??1CMemSpyApiEComCategory@@UAE@XZ @ 29 NONAME ; CMemSpyApiEComCategory::~CMemSpyApiEComCategory(void)
	?ControllingOwner@CMemSpyApiKernelObjectItem@@QBEIXZ @ 30 NONAME ; unsigned int CMemSpyApiKernelObjectItem::ControllingOwner(void) const
	?Priority@CMemSpyApiWindowGroup@@QBEHXZ @ 31 NONAME ; int CMemSpyApiWindowGroup::Priority(void) const
	?SwmtResetTracking@RMemSpySession@@QAEXXZ @ 32 NONAME ; void RMemSpySession::SwmtResetTracking(void)
	?Version@CMemSpyApiKernelObjectItem@@QBE?AVTVersion@@XZ @ 33 NONAME ; class TVersion CMemSpyApiKernelObjectItem::Version(void) const
	?SwitchToProcess@RMemSpySession@@QAEHVTProcessId@@H@Z @ 34 NONAME ; int RMemSpySession::SwitchToProcess(class TProcessId, int)
	?MaxSize@CMemSpyApiKernelObjectItem@@QBEHXZ @ 35 NONAME ; int CMemSpyApiKernelObjectItem::MaxSize(void) const
	?IsSwmtRunningL@RMemSpySession@@QAEHXZ @ 36 NONAME ; int RMemSpySession::IsSwmtRunningL(void)
	?AddressOfOwningProcess@CMemSpyApiKernelObjectItem@@QAEPAEXZ @ 37 NONAME ; unsigned char * CMemSpyApiKernelObjectItem::AddressOfOwningProcess(void)
	?ExitReason@CMemSpyApiProcess@@QBEHXZ @ 38 NONAME ; int CMemSpyApiProcess::ExitReason(void) const
	?MsgCount@CMemSpyApiKernelObjectItem@@QBEHXZ @ 39 NONAME ; int CMemSpyApiKernelObjectItem::MsgCount(void) const
	?ImplementationUid@CMemSpyApiEComImplementation@@QBE?AVTUid@@XZ @ 40 NONAME ; class TUid CMemSpyApiEComImplementation::ImplementationUid(void) const
	?DataType@CMemSpyApiEComImplementation@@QBEABVTDesC16@@XZ @ 41 NONAME ; class TDesC16 const & CMemSpyApiEComImplementation::DataType(void) const
	?AllocationsCount@CMemSpyApiHeap@@QAEHXZ @ 42 NONAME ; int CMemSpyApiHeap::AllocationsCount(void)
	?WaitCount@CMemSpyApiKernelObjectItem@@QBEHXZ @ 43 NONAME ; int CMemSpyApiKernelObjectItem::WaitCount(void) const
	?SID@CMemSpyApiProcess@@QBEKXZ @ 44 NONAME ; unsigned long CMemSpyApiProcess::SID(void) const
	?ThreadId@CMemSpyApiWindowGroup@@QBE?AVTThreadId@@XZ @ 45 NONAME ; class TThreadId CMemSpyApiWindowGroup::ThreadId(void) const
	?GetKernelObjectsL@RMemSpySession@@QAEXAAV?$RArray@PAVCMemSpyApiKernelObject@@@@@Z @ 46 NONAME ; void RMemSpySession::GetKernelObjectsL(class RArray<class CMemSpyApiKernelObject *> &)
	?CycleNumber@CMemSpyApiMemoryTrackingCycle@@QBEHXZ @ 47 NONAME ; int CMemSpyApiMemoryTrackingCycle::CycleNumber(void) const
	?OpaqueData@CMemSpyApiEComImplementation@@QBEABVTDesC16@@XZ @ 48 NONAME ; class TDesC16 const & CMemSpyApiEComImplementation::OpaqueData(void) const
	?GetEComCategoriesL@RMemSpySession@@QAEXAAV?$RArray@PAVCMemSpyApiEComCategory@@@@@Z @ 49 NONAME ; void RMemSpySession::GetEComCategoriesL(class RArray<class CMemSpyApiEComCategory *> &)
	?Size@CMemSpyApiKernelObject@@QBE_JXZ @ 50 NONAME ; long long CMemSpyApiKernelObject::Size(void) const
	?SetSwmtCategoriesL@RMemSpySession@@QAEXH@Z @ 51 NONAME ; void RMemSpySession::SetSwmtCategoriesL(int)
	?CancelDeviceWideOperationL@RMemSpySession@@QAEXXZ @ 52 NONAME ; void RMemSpySession::CancelDeviceWideOperationL(void)
	?TotalAllocations@CMemSpyApiHeap@@QAEHXZ @ 53 NONAME ; int CMemSpyApiHeap::TotalAllocations(void)
	?Name@CMemSpyApiProcess@@QBEABVTDesC16@@XZ @ 54 NONAME ; class TDesC16 const & CMemSpyApiProcess::Name(void) const
	?DumpKernelHeap@RMemSpySession@@QAEXXZ @ 55 NONAME ; void RMemSpySession::DumpKernelHeap(void)
	?GetKernelObjects@RMemSpySession@@QAEHAAV?$RArray@PAVCMemSpyApiKernelObject@@@@@Z @ 56 NONAME ; int RMemSpySession::GetKernelObjects(class RArray<class CMemSpyApiKernelObject *> &)
	?Priority@CMemSpyApiProcess@@QBE?AW4TProcessPriority@@XZ @ 57 NONAME ; enum TProcessPriority CMemSpyApiProcess::Priority(void) const
	?HeaderSizeF@CMemSpyApiHeap@@QAEHXZ @ 58 NONAME ; int CMemSpyApiHeap::HeaderSizeF(void)
	?OutputCompactStackInfoL@RMemSpySession@@QAEXXZ @ 59 NONAME ; void RMemSpySession::OutputCompactStackInfoL(void)
	?MsgLimit@CMemSpyApiKernelObjectItem@@QBEHXZ @ 60 NONAME ; int CMemSpyApiKernelObjectItem::MsgLimit(void) const
	?AddressOfDataBssStackChunk@CMemSpyApiKernelObjectItem@@QAEPAEXZ @ 61 NONAME ; unsigned char * CMemSpyApiKernelObjectItem::AddressOfDataBssStackChunk(void)
	?Top@CMemSpyApiKernelObjectItem@@QBEHXZ @ 62 NONAME ; int CMemSpyApiKernelObjectItem::Top(void) const
	?Resetting@CMemSpyApiKernelObjectItem@@QBEEXZ @ 63 NONAME ; unsigned char CMemSpyApiKernelObjectItem::Resetting(void) const
	?GetProcessIdByThreadId@RMemSpySession@@QAEXAAVTProcessId@@VTThreadId@@@Z @ 64 NONAME ; void RMemSpySession::GetProcessIdByThreadId(class TProcessId &, class TThreadId)
	?GetWindowGroupsL@RMemSpySession@@QAEXAAV?$RArray@PAVCMemSpyApiWindowGroup@@@@@Z @ 65 NONAME ; void RMemSpySession::GetWindowGroupsL(class RArray<class CMemSpyApiWindowGroup *> &)
	?HeaderSizeA@CMemSpyApiHeap@@QAEHXZ @ 66 NONAME ; int CMemSpyApiHeap::HeaderSizeA(void)
	?OutputHeapData@RMemSpySession@@QAEXXZ @ 67 NONAME ; void RMemSpySession::OutputHeapData(void)
	?TotalAccessCount@CMemSpyApiKernelObjectItem@@QBEGXZ @ 68 NONAME ; unsigned short CMemSpyApiKernelObjectItem::TotalAccessCount(void) const
	?Name@CMemSpyApiEComImplementation@@QBEABVTDesC16@@XZ @ 69 NONAME ; class TDesC16 const & CMemSpyApiEComImplementation::Name(void) const
	?Changes@CMemSpyApiKernelObjectItem@@QBEIXZ @ 70 NONAME ; unsigned int CMemSpyApiKernelObjectItem::Changes(void) const
	??0RMemSpySession@@QAE@XZ @ 71 NONAME ; RMemSpySession::RMemSpySession(void)
	?OutputUserStackData@RMemSpySession@@QAEXAAVTRequestStatus@@@Z @ 72 NONAME ; void RMemSpySession::OutputUserStackData(class TRequestStatus &)
	?Drive@CMemSpyApiEComImplementation@@QBE?AVTDriveUnit@@XZ @ 73 NONAME ; class TDriveUnit CMemSpyApiEComImplementation::Drive(void) const
	?AddressOfServer@CMemSpyApiKernelObjectItem@@QAEPAEXZ @ 74 NONAME ; unsigned char * CMemSpyApiKernelObjectItem::AddressOfServer(void)
	?VendorId@CMemSpyApiEComImplementation@@QBE?AVTVendorId@@XZ @ 75 NONAME ; class TVendorId CMemSpyApiEComImplementation::VendorId(void) const
	?Version@CMemSpyApiEComImplementation@@QBEHXZ @ 76 NONAME ; int CMemSpyApiEComImplementation::Version(void) const
	?Size@CMemSpyApiHeap@@QAEHXZ @ 77 NONAME ; int CMemSpyApiHeap::Size(void)
	?GetServersL@RMemSpySession@@QAEXAAV?$RArray@PAVCMemSpyApiServer@@@@@Z @ 78 NONAME ; void RMemSpySession::GetServersL(class RArray<class CMemSpyApiServer *> &)
	?GetInfoItemType@RMemSpySession@@QAEHHVTThreadId@@AAW4TMemSpyThreadInfoItemType@@@Z @ 79 NONAME ; int RMemSpySession::GetInfoItemType(int, class TThreadId, enum TMemSpyThreadInfoItemType &)
	??1CMemSpyApiKernelObject@@QAE@XZ @ 80 NONAME ; CMemSpyApiKernelObject::~CMemSpyApiKernelObject(void)
	??1CMemSpyApiHeap@@QAE@XZ @ 81 NONAME ; CMemSpyApiHeap::~CMemSpyApiHeap(void)
	?SetSwmtHeapDumpsEnabledL@RMemSpySession@@QAEXH@Z @ 82 NONAME ; void RMemSpySession::SetSwmtHeapDumpsEnabledL(int)
	?SetSwmtFilter@RMemSpySession@@QAEXABVTDesC16@@@Z @ 83 NONAME ; void RMemSpySession::SetSwmtFilter(class TDesC16 const &)
	?Name@CMemSpyApiEComCategory@@QBEABVTDesC16@@XZ @ 84 NONAME ; class TDesC16 const & CMemSpyApiEComCategory::Name(void) const
	?Size@CMemSpyApiKernelObjectItem@@QBEKXZ @ 85 NONAME ; unsigned long CMemSpyApiKernelObjectItem::Size(void) const
	?OutputThreadInfoHandlesL@RMemSpySession@@QAEXVTThreadId@@@Z @ 86 NONAME ; void RMemSpySession::OutputThreadInfoHandlesL(class TThreadId)
	?OutputThreadHeapDataL@RMemSpySession@@QAEXABVTDesC16@@@Z @ 87 NONAME ; void RMemSpySession::OutputThreadHeapDataL(class TDesC16 const &)
	?GetEComImplementationsL@RMemSpySession@@QAEXVTUid@@AAV?$RArray@PAVCMemSpyApiEComImplementation@@@@@Z @ 88 NONAME ; void RMemSpySession::GetEComImplementationsL(class TUid, class RArray<class CMemSpyApiEComImplementation *> &)
	?Type@CMemSpyApiKernelObject@@QBE?AW4TMemSpyDriverContainerType@@XZ @ 89 NONAME ; enum TMemSpyDriverContainerType CMemSpyApiKernelObject::Type(void) const
	?Name@CMemSpyApiKernelObject@@QBEABVTDesC16@@XZ @ 90 NONAME ; class TDesC16 const & CMemSpyApiKernelObject::Name(void) const
	?Fragmentation@CMemSpyApiHeap@@QAEHXZ @ 91 NONAME ; int CMemSpyApiHeap::Fragmentation(void)
	?TimerType@CMemSpyApiKernelObjectItem@@QBE?AW4TMemSpyDriverTimerType@@XZ @ 92 NONAME ; enum TMemSpyDriverTimerType CMemSpyApiKernelObjectItem::TimerType(void) const
	?Value@CMemSpyApiThreadInfoItem@@QBEABVTDesC16@@XZ @ 93 NONAME ; class TDesC16 const & CMemSpyApiThreadInfoItem::Value(void) const
	?SecurityZone@CMemSpyApiKernelObjectItem@@QBEIXZ @ 94 NONAME ; unsigned int CMemSpyApiKernelObjectItem::SecurityZone(void) const
	?CreatorId@CMemSpyApiKernelObjectItem@@QBEIXZ @ 95 NONAME ; unsigned int CMemSpyApiKernelObjectItem::CreatorId(void) const
	?Order@CMemSpyApiKernelObjectItem@@QBEEXZ @ 96 NONAME ; unsigned char CMemSpyApiKernelObjectItem::Order(void) const
	?NameDetail@CMemSpyApiKernelObjectItem@@QBEABVTDesC8@@XZ @ 97 NONAME ; class TDesC8 const & CMemSpyApiKernelObjectItem::NameDetail(void) const
	??1CMemSpyApiEComImplementation@@UAE@XZ @ 98 NONAME ; CMemSpyApiEComImplementation::~CMemSpyApiEComImplementation(void)
	?OutputStackInfo@RMemSpySession@@QAEXAAVTRequestStatus@@@Z @ 99 NONAME ; void RMemSpySession::OutputStackInfo(class TRequestStatus &)
	?Handle@CMemSpyApiKernelObjectItem@@QBEPAXXZ @ 100 NONAME ; void * CMemSpyApiKernelObjectItem::Handle(void) const
	?GetProcessesL@RMemSpySession@@QAEXAAV?$RArray@PAVCMemSpyApiProcess@@@@W4TSortType@@@Z @ 101 NONAME ; void RMemSpySession::GetProcessesL(class RArray<class CMemSpyApiProcess *> &, enum TSortType)
	?ParseMask@CMemSpyApiKernelObjectItem@@QBEIXZ @ 102 NONAME ; unsigned int CMemSpyApiKernelObjectItem::ParseMask(void) const
	?Attributes@CMemSpyApiKernelObjectItem@@QBEHXZ @ 103 NONAME ; int CMemSpyApiKernelObjectItem::Attributes(void) const
	?MemoryDelta@CMemSpyApiMemoryTrackingCycle@@QBE_JXZ @ 104 NONAME ; long long CMemSpyApiMemoryTrackingCycle::MemoryDelta(void) const
	?GetSwmtFilter@RMemSpySession@@QAEXAAV?$TBuf@$0IA@@@@Z @ 105 NONAME ; void RMemSpySession::GetSwmtFilter(class TBuf<128> &)
	?Caption@CMemSpyApiThreadInfoItem@@QBEABVTDesC16@@XZ @ 106 NONAME ; class TDesC16 const & CMemSpyApiThreadInfoItem::Caption(void) const
	?DebugAllocatorLibrary@CMemSpyApiHeap@@QAEHXZ @ 107 NONAME ; int CMemSpyApiHeap::DebugAllocatorLibrary(void)
	?Overhead@CMemSpyApiHeap@@QAEHXZ @ 108 NONAME ; int CMemSpyApiHeap::Overhead(void)
	?InterfaceCount@CMemSpyApiEComCategory@@QBEHXZ @ 109 NONAME ; int CMemSpyApiEComCategory::InterfaceCount(void) const
	?ForceSwmtUpdate@RMemSpySession@@QAEXAAVTRequestStatus@@@Z @ 110 NONAME ; void RMemSpySession::ForceSwmtUpdate(class TRequestStatus &)
	?GetHeapL@RMemSpySession@@QAEPAVCMemSpyApiHeap@@XZ @ 111 NONAME ; class CMemSpyApiHeap * RMemSpySession::GetHeapL(void)
	?ServerListOutputGenericL@RMemSpySession@@QAEXH@Z @ 112 NONAME ; void RMemSpySession::ServerListOutputGenericL(int)
	?OutputKernelStackData@RMemSpySession@@QAEXAAVTRequestStatus@@@Z @ 113 NONAME ; void RMemSpySession::OutputKernelStackData(class TRequestStatus &)
	?GetSwmtTimerIntervalL@RMemSpySession@@QAEXAAH@Z @ 114 NONAME ; void RMemSpySession::GetSwmtTimerIntervalL(int &)
	?GetSwmtHeapDumpsEnabledL@RMemSpySession@@QAEXAAH@Z @ 115 NONAME ; void RMemSpySession::GetSwmtHeapDumpsEnabledL(int &)
	?AddressOfOwningThread@CMemSpyApiKernelObjectItem@@QAEPAEXZ @ 116 NONAME ; unsigned char * CMemSpyApiKernelObjectItem::AddressOfOwningThread(void)
	?ThreadPriority@CMemSpyApiThread@@QBE?AW4TThreadPriority@@XZ @ 117 NONAME ; enum TThreadPriority CMemSpyApiThread::ThreadPriority(void) const
	?GetHeap@RMemSpySession@@QAEPAVCMemSpyApiHeap@@XZ @ 118 NONAME ; class CMemSpyApiHeap * RMemSpySession::GetHeap(void)
	?Id@CMemSpyApiEComInterface@@QBE?AVTUid@@XZ @ 119 NONAME ; class TUid CMemSpyApiEComInterface::Id(void) const
	?Caption@CMemSpyApiWindowGroup@@QBEABVTDesC16@@XZ @ 120 NONAME ; class TDesC16 const & CMemSpyApiWindowGroup::Caption(void) const
	??1CMemSpyApiMemoryTrackingCycle@@QAE@XZ @ 121 NONAME ; CMemSpyApiMemoryTrackingCycle::~CMemSpyApiMemoryTrackingCycle(void)
	?AccessCount@CMemSpyApiKernelObjectItem@@QBEHXZ @ 122 NONAME ; int CMemSpyApiKernelObjectItem::AccessCount(void) const
	?ChangeCount@CMemSpyApiMemoryTrackingCycle@@QBEHXZ @ 123 NONAME ; int CMemSpyApiMemoryTrackingCycle::ChangeCount(void) const
	?OutputHeapInfo@RMemSpySession@@QAEXAAVTRequestStatus@@@Z @ 124 NONAME ; void RMemSpySession::OutputHeapInfo(class TRequestStatus &)
	?Time@CMemSpyApiMemoryTrackingCycle@@QBEABVTTime@@XZ @ 125 NONAME ; class TTime const & CMemSpyApiMemoryTrackingCycle::Time(void) const
	?SetSwmtTimerIntervalL@RMemSpySession@@QAEXH@Z @ 126 NONAME ; void RMemSpySession::SetSwmtTimerIntervalL(int)
	?OutputKernelHeapData@RMemSpySession@@QAEXAAVTRequestStatus@@@Z @ 127 NONAME ; void RMemSpySession::OutputKernelHeapData(class TRequestStatus &)
	?Id@CMemSpyApiWindowGroup@@QBEHXZ @ 128 NONAME ; int CMemSpyApiWindowGroup::Id(void) const
	?MaxLength@CMemSpyApiHeap@@QAEHXZ @ 129 NONAME ; int CMemSpyApiHeap::MaxLength(void)
	?AddressOfKernelOwner@CMemSpyApiKernelObjectItem@@QAEPAEXZ @ 130 NONAME ; unsigned char * CMemSpyApiKernelObjectItem::AddressOfKernelOwner(void)
	?RomBased@CMemSpyApiEComImplementation@@QBEHXZ @ 131 NONAME ; int CMemSpyApiEComImplementation::RomBased(void) const
	??1CMemSpyApiThreadInfoItem@@QAE@XZ @ 132 NONAME ; CMemSpyApiThreadInfoItem::~CMemSpyApiThreadInfoItem(void)
	?FreeCount@CMemSpyApiHeap@@QAEHXZ @ 133 NONAME ; int CMemSpyApiHeap::FreeCount(void)
	?RomOnly@CMemSpyApiEComImplementation@@QBEHXZ @ 134 NONAME ; int CMemSpyApiEComImplementation::RomOnly(void) const
	?TotalFree@CMemSpyApiHeap@@QAEHXZ @ 135 NONAME ; int CMemSpyApiHeap::TotalFree(void)
	?SwitchToThread@RMemSpySession@@QAEHVTThreadId@@H@Z @ 136 NONAME ; int RMemSpySession::SwitchToThread(class TThreadId, int)
	?GetServersL@RMemSpySession@@QAEXAAV?$RArray@PAVCMemSpyApiServer@@@@W4TSortType@@@Z @ 137 NONAME ; void RMemSpySession::GetServersL(class RArray<class CMemSpyApiServer *> &, enum TSortType)
	?FreeOverhead@CMemSpyApiHeap@@QAEHXZ @ 138 NONAME ; int CMemSpyApiHeap::FreeOverhead(void)
	?SwitchOutputToTraceL@RMemSpySession@@QAEXXZ @ 139 NONAME ; void RMemSpySession::SwitchOutputToTraceL(void)
	?SlackFreeSpace@CMemSpyApiHeap@@QAEHXZ @ 140 NONAME ; int CMemSpyApiHeap::SlackFreeSpace(void)
	?Priority@CMemSpyApiKernelObjectItem@@QBEHXZ @ 141 NONAME ; int CMemSpyApiKernelObjectItem::Priority(void) const
	?ForceSwmtUpdateL@RMemSpySession@@QAEXXZ @ 142 NONAME ; void RMemSpySession::ForceSwmtUpdateL(void)
	?ThreadCount@CMemSpyApiProcess@@QBEHXZ @ 143 NONAME ; int CMemSpyApiProcess::ThreadCount(void) const
	?RequestCount@CMemSpyApiThread@@QBEHXZ @ 144 NONAME ; int CMemSpyApiThread::RequestCount(void) const
	?Caption@CMemSpyApiMemoryTrackingCycle@@QBEABVTDesC16@@XZ @ 145 NONAME ; class TDesC16 const & CMemSpyApiMemoryTrackingCycle::Caption(void) const
	?StopSwmtTimerL@RMemSpySession@@QAEXXZ @ 146 NONAME ; void RMemSpySession::StopSwmtTimerL(void)
	??1CMemSpyApiProcess@@QAE@XZ @ 147 NONAME ; CMemSpyApiProcess::~CMemSpyApiProcess(void)
	?MinLength@CMemSpyApiHeap@@QAEHXZ @ 148 NONAME ; int CMemSpyApiHeap::MinLength(void)
	?ExitCategory@CMemSpyApiProcess@@QBE?AV?$TBuf@$0BA@@@XZ @ 149 NONAME ; class TBuf<16> CMemSpyApiProcess::ExitCategory(void) const
	?Progress@TMemSpyDeviceWideOperationProgress@@QBEHXZ @ 150 NONAME ; int TMemSpyDeviceWideOperationProgress::Progress(void) const
	?Count@CMemSpyApiKernelObject@@QBEHXZ @ 151 NONAME ; int CMemSpyApiKernelObject::Count(void) const
	?IsDead@CMemSpyApiProcess@@QBEHXZ @ 152 NONAME ; int CMemSpyApiProcess::IsDead(void) const
	?EndThreadL@RMemSpySession@@QAEHVTThreadId@@W4TMemSpyEndType@@@Z @ 153 NONAME ; int RMemSpySession::EndThreadL(class TThreadId, enum TMemSpyEndType)
	?OrdinalPosition@CMemSpyApiWindowGroup@@QBEHXZ @ 154 NONAME ; int CMemSpyApiWindowGroup::OrdinalPosition(void) const
	?StartPos@CMemSpyApiKernelObjectItem@@QBEHXZ @ 155 NONAME ; int CMemSpyApiKernelObjectItem::StartPos(void) const
	?TimerState@CMemSpyApiKernelObjectItem@@QBE?AW4TMemSpyDriverTimerState@@XZ @ 156 NONAME ; enum TMemSpyDriverTimerState CMemSpyApiKernelObjectItem::TimerState(void) const
	?GetEComInterfacesL@RMemSpySession@@QAEXVTUid@@AAV?$RArray@PAVCMemSpyApiEComInterface@@@@@Z @ 157 NONAME ; void RMemSpySession::GetEComInterfacesL(class TUid, class RArray<class CMemSpyApiEComInterface *> &)
	?BaseAddress@CMemSpyApiHeap@@QAEHXZ @ 158 NONAME ; int CMemSpyApiHeap::BaseAddress(void)
	?ExitType@CMemSpyApiThread@@QBE?AW4TExitType@@XZ @ 159 NONAME ; enum TExitType CMemSpyApiThread::ExitType(void) const
	?StartSwmtTimerL@RMemSpySession@@QAEXH@Z @ 160 NONAME ; void RMemSpySession::StartSwmtTimerL(int)
	?Type@CMemSpyApiHeap@@QAEAAVTDesC16@@XZ @ 161 NONAME ; class TDesC16 & CMemSpyApiHeap::Type(void)
	?GetOutputSink@RMemSpySession@@QAEXAAW4TMemSpySinkType@@@Z @ 162 NONAME ; void RMemSpySession::GetOutputSink(enum TMemSpySinkType &)
	?Id@CMemSpyApiProcess@@QBE?AVTProcessId@@XZ @ 163 NONAME ; class TProcessId CMemSpyApiProcess::Id(void) const
	?BiggestAllocation@CMemSpyApiHeap@@QAEHXZ @ 164 NONAME ; int CMemSpyApiHeap::BiggestAllocation(void)
	??1CMemSpyApiKernelObjectItem@@QAE@XZ @ 165 NONAME ; CMemSpyApiKernelObjectItem::~CMemSpyApiKernelObjectItem(void)
	?AllocationOverhead@CMemSpyApiHeap@@QAEHXZ @ 166 NONAME ; int CMemSpyApiHeap::AllocationOverhead(void)
	?OutputKernelObjectsL@RMemSpySession@@QAEXXZ @ 167 NONAME ; void RMemSpySession::OutputKernelObjectsL(void)
	?NameOfOwner@CMemSpyApiKernelObjectItem@@QBEABVTDesC8@@XZ @ 168 NONAME ; class TDesC8 const & CMemSpyApiKernelObjectItem::NameOfOwner(void) const
	?OutputAllContainerContents@RMemSpySession@@QAEXXZ @ 169 NONAME ; void RMemSpySession::OutputAllContainerContents(void)
	?ThreadSystemPermanentOrCritical@RMemSpySession@@QAEHVTThreadId@@H@Z @ 170 NONAME ; int RMemSpySession::ThreadSystemPermanentOrCritical(class TThreadId, int)
	?Uid@CMemSpyApiWindowGroup@@QBE?AVTUid@@XZ @ 171 NONAME ; class TUid CMemSpyApiWindowGroup::Uid(void) const
	?Protection@CMemSpyApiKernelObjectItem@@QBEIXZ @ 172 NONAME ; unsigned int CMemSpyApiKernelObjectItem::Protection(void) const
	?BiggestFree@CMemSpyApiHeap@@QAEHXZ @ 173 NONAME ; int CMemSpyApiHeap::BiggestFree(void)
	?Attributes@CMemSpyApiThread@@QBEHXZ @ 174 NONAME ; int CMemSpyApiThread::Attributes(void) const
	?GetSwmtCyclesCount@RMemSpySession@@QAEHXZ @ 175 NONAME ; int RMemSpySession::GetSwmtCyclesCount(void)
	?Bottom@CMemSpyApiKernelObjectItem@@QBEHXZ @ 176 NONAME ; int CMemSpyApiKernelObjectItem::Bottom(void) const
	?StartSwmtTimerL@RMemSpySession@@QAEXXZ @ 177 NONAME ; void RMemSpySession::StartSwmtTimerL(void)
	?EndProcessL@RMemSpySession@@QAEHVTProcessId@@W4TMemSpyEndType@@@Z @ 178 NONAME ; int RMemSpySession::EndProcessL(class TProcessId, enum TMemSpyEndType)
	?GetKernelObjectItemsL@RMemSpySession@@QAEXAAV?$RArray@PAVCMemSpyApiKernelObjectItem@@@@W4TMemSpyDriverContainerType@@@Z @ 179 NONAME ; void RMemSpySession::GetKernelObjectItemsL(class RArray<class CMemSpyApiKernelObjectItem *> &, enum TMemSpyDriverContainerType)
	?OutputPhoneInfo@RMemSpySession@@QAEXXZ @ 180 NONAME ; void RMemSpySession::OutputPhoneInfo(void)
	?IsBusy@CMemSpyApiWindowGroup@@QBEHXZ @ 181 NONAME ; int CMemSpyApiWindowGroup::IsBusy(void) const
	?NotifyDeviceWideOperationProgress@RMemSpySession@@QAEXAAVTMemSpyDeviceWideOperationProgress@@AAVTRequestStatus@@@Z @ 182 NONAME ; void RMemSpySession::NotifyDeviceWideOperationProgress(class TMemSpyDeviceWideOperationProgress &, class TRequestStatus &)
	?OutputCompactHeapInfo@RMemSpySession@@QAEXAAVTRequestStatus@@@Z @ 183 NONAME ; void RMemSpySession::OutputCompactHeapInfo(class TRequestStatus &)
	?ThreadHandles@CMemSpyApiThread@@QBEHXZ @ 184 NONAME ; int CMemSpyApiThread::ThreadHandles(void) const
	?SvrSessionType@CMemSpyApiKernelObjectItem@@QBEEXZ @ 185 NONAME ; unsigned char CMemSpyApiKernelObjectItem::SvrSessionType(void) const
	?IsSystem@CMemSpyApiWindowGroup@@QBEHXZ @ 186 NONAME ; int CMemSpyApiWindowGroup::IsSystem(void) const
	?SwitchOutputSinkL@RMemSpySession@@QAEXW4TMemSpySinkType@@@Z @ 187 NONAME ; void RMemSpySession::SwitchOutputSinkL(enum TMemSpySinkType)
	?ChunkType@CMemSpyApiKernelObjectItem@@QBEIXZ @ 188 NONAME ; unsigned int CMemSpyApiKernelObjectItem::ChunkType(void) const
	?GetSwmtMode@RMemSpySession@@QAEXAAW4TMemSpyEngineSysMemTrackerMode@TMemSpyEngineHelperSysMemTrackerConfig@@@Z @ 189 NONAME ; void RMemSpySession::GetSwmtMode(enum TMemSpyEngineHelperSysMemTrackerConfig::TMemSpyEngineSysMemTrackerMode &)
	?WindowGroupHandle@CMemSpyApiWindowGroup@@QBEHXZ @ 190 NONAME ; int CMemSpyApiWindowGroup::WindowGroupHandle(void) const
	?OutputPhoneInfo@RMemSpySession@@QAEXAAVTRequestStatus@@@Z @ 191 NONAME ; void RMemSpySession::OutputPhoneInfo(class TRequestStatus &)
	?Id@CMemSpyApiThread@@QBE?AVTThreadId@@XZ @ 192 NONAME ; class TThreadId CMemSpyApiThread::Id(void) const
	?GetMemoryTrackingCyclesL@RMemSpySession@@QAEXAAV?$RArray@PAVCMemSpyApiMemoryTrackingCycle@@@@@Z @ 193 NONAME ; void RMemSpySession::GetMemoryTrackingCyclesL(class RArray<class CMemSpyApiMemoryTrackingCycle *> &)
	?GetProcessIdByNameL@RMemSpySession@@QAE?AVTProcessId@@ABVTDesC16@@@Z @ 194 NONAME ; class TProcessId RMemSpySession::GetProcessIdByNameL(class TDesC16 const &)
	?MapAttr@CMemSpyApiKernelObjectItem@@QBEIXZ @ 195 NONAME ; unsigned int CMemSpyApiKernelObjectItem::MapAttr(void) const
	?OutputCompactStackInfo@RMemSpySession@@QAEXAAVTRequestStatus@@@Z @ 196 NONAME ; void RMemSpySession::OutputCompactStackInfo(class TRequestStatus &)
	?VID@CMemSpyApiProcess@@QBEKXZ @ 197 NONAME ; unsigned long CMemSpyApiProcess::VID(void) const
	?AddressOfCodeSeg@CMemSpyApiKernelObjectItem@@QAEPAEXZ @ 198 NONAME ; unsigned char * CMemSpyApiKernelObjectItem::AddressOfCodeSeg(void)
	?ThreadId@CMemSpyApiServer@@QBE?AVTThreadId@@XZ @ 199 NONAME ; class TThreadId CMemSpyApiServer::ThreadId(void) const
	?GetThreadsL@RMemSpySession@@QAEXVTProcessId@@AAV?$RArray@PAVCMemSpyApiThread@@@@W4TSortType@@@Z @ 200 NONAME ; void RMemSpySession::GetThreadsL(class TProcessId, class RArray<class CMemSpyApiThread *> &, enum TSortType)
	?ProcessId@CMemSpyApiThread@@QBE?AVTProcessId@@XZ @ 201 NONAME ; class TProcessId CMemSpyApiThread::ProcessId(void) const
	?Type@CMemSpyApiKernelObjectItem@@QBE?AW4TMemSpyDriverContainerType@@XZ @ 202 NONAME ; enum TMemSpyDriverContainerType CMemSpyApiKernelObjectItem::Type(void) const
	?ImplementationCount@CMemSpyApiEComInterface@@QBEHXZ @ 203 NONAME ; int CMemSpyApiEComInterface::ImplementationCount(void) const
	?FullName@CMemSpyApiWindowGroup@@QBEABVTDesC16@@XZ @ 204 NONAME ; class TDesC16 const & CMemSpyApiWindowGroup::FullName(void) const
	?ChunkSize@CMemSpyApiHeap@@QAEHXZ @ 205 NONAME ; int CMemSpyApiHeap::ChunkSize(void)
	??1CMemSpyApiEComInterface@@UAE@XZ @ 206 NONAME ; CMemSpyApiEComInterface::~CMemSpyApiEComInterface(void)
	?UnitsMask@CMemSpyApiKernelObjectItem@@QBEIXZ @ 207 NONAME ; unsigned int CMemSpyApiKernelObjectItem::UnitsMask(void) const
	?Name@CMemSpyApiEComInterface@@QBEABVTDesC16@@XZ @ 208 NONAME ; class TDesC16 const & CMemSpyApiEComInterface::Name(void) const
	?Disabled@CMemSpyApiEComImplementation@@QBEHXZ @ 209 NONAME ; int CMemSpyApiEComImplementation::Disabled(void) const
	?Name@CMemSpyApiServer@@QBEABVTDesC16@@XZ @ 210 NONAME ; class TDesC16 const & CMemSpyApiServer::Name(void) const
	?State@CMemSpyApiKernelObjectItem@@QBEEXZ @ 211 NONAME ; unsigned char CMemSpyApiKernelObjectItem::State(void) const
	?Shared@CMemSpyApiHeap@@QAEHXZ @ 212 NONAME ; int CMemSpyApiHeap::Shared(void)
	?SetSwmtAutoStartProcessList@RMemSpySession@@QAEXPAV?$CArrayFixFlat@VTUid@@@@@Z @ 213 NONAME ; void RMemSpySession::SetSwmtAutoStartProcessList(class CArrayFixFlat<class TUid> *)
	?OutputCompactHeapInfoL@RMemSpySession@@QAEXXZ @ 214 NONAME ; void RMemSpySession::OutputCompactHeapInfoL(void)
	?ProcessSystemPermanentOrCritical@RMemSpySession@@QAEHVTProcessId@@H@Z @ 215 NONAME ; int RMemSpySession::ProcessSystemPermanentOrCritical(class TProcessId, int)
	??1CMemSpyApiServer@@QAE@XZ @ 216 NONAME ; CMemSpyApiServer::~CMemSpyApiServer(void)
	?SetSwmtMode@RMemSpySession@@QAEXW4TMemSpyEngineSysMemTrackerMode@TMemSpyEngineHelperSysMemTrackerConfig@@@Z @ 217 NONAME ; void RMemSpySession::SetSwmtMode(enum TMemSpyEngineHelperSysMemTrackerConfig::TMemSpyEngineSysMemTrackerMode)
	?OutputKernelHeapDataL@RMemSpySession@@QAEXXZ @ 218 NONAME ; void RMemSpySession::OutputKernelHeapDataL(void)
	??1CMemSpyApiWindowGroup@@UAE@XZ @ 219 NONAME ; CMemSpyApiWindowGroup::~CMemSpyApiWindowGroup(void)
	?MapCount@CMemSpyApiKernelObjectItem@@QBEHXZ @ 220 NONAME ; int CMemSpyApiKernelObjectItem::MapCount(void) const
	?OpenChannels@CMemSpyApiKernelObjectItem@@QAEHXZ @ 221 NONAME ; int CMemSpyApiKernelObjectItem::OpenChannels(void)
	?ProcessPriority@CMemSpyApiThread@@QBE?AW4TProcessPriority@@XZ @ 222 NONAME ; enum TProcessPriority CMemSpyApiThread::ProcessPriority(void) const
	?IsFocused@CMemSpyApiWindowGroup@@QBEHXZ @ 223 NONAME ; int CMemSpyApiWindowGroup::IsFocused(void) const
	?OutputAOListL@RMemSpySession@@QAEXVTThreadId@@W4TMemSpyThreadInfoItemType@@@Z @ 224 NONAME ; void RMemSpySession::OutputAOListL(class TThreadId, enum TMemSpyThreadInfoItemType)
	?ThreadNumberUsing@CMemSpyApiThread@@QBEHXZ @ 225 NONAME ; int CMemSpyApiThread::ThreadNumberUsing(void) const
	?OutputThreadCellListL@RMemSpySession@@QAEXVTThreadId@@@Z @ 226 NONAME ; void RMemSpySession::OutputThreadCellListL(class TThreadId)
	?OutputHeapInfoUserL@RMemSpySession@@QAEXVTThreadId@@@Z @ 227 NONAME ; void RMemSpySession::OutputHeapInfoUserL(class TThreadId)
	?SessionCount@CMemSpyApiServer@@QBEHXZ @ 228 NONAME ; int CMemSpyApiServer::SessionCount(void) const
	?Connect@RMemSpySession@@QAEHXZ @ 229 NONAME ; int RMemSpySession::Connect(void)
	??1CMemSpyApiThread@@QAE@XZ @ 230 NONAME ; CMemSpyApiThread::~CMemSpyApiThread(void)
	?GetThreadInfoItems@RMemSpySession@@QAEHAAV?$RArray@PAVCMemSpyApiThreadInfoItem@@@@VTThreadId@@W4TMemSpyThreadInfoItemType@@@Z @ 231 NONAME ; int RMemSpySession::GetThreadInfoItems(class RArray<class CMemSpyApiThreadInfoItem *> &, class TThreadId, enum TMemSpyThreadInfoItemType)
	?SID@CMemSpyApiThread@@QBEHXZ @ 232 NONAME ; int CMemSpyApiThread::SID(void) const
	?GetKernelObjectItems@RMemSpySession@@QAEHAAV?$RArray@PAVCMemSpyApiKernelObjectItem@@@@W4TMemSpyDriverContainerType@@@Z @ 233 NONAME ; int RMemSpySession::GetKernelObjectItems(class RArray<class CMemSpyApiKernelObjectItem *> &, enum TMemSpyDriverContainerType)
	?Name@CMemSpyApiWindowGroup@@QBEABVTDesC16@@XZ @ 234 NONAME ; class TDesC16 const & CMemSpyApiWindowGroup::Name(void) const
	?ProcessHandles@CMemSpyApiThread@@QBEHXZ @ 235 NONAME ; int CMemSpyApiThread::ProcessHandles(void) const
	?Name@CMemSpyApiThread@@QBEABVTDesC16@@XZ @ 236 NONAME ; class TDesC16 const & CMemSpyApiThread::Name(void) const

