EXPORTS
	_ZN19RMemSpyDriverClient10GetVersionER8TVersion @ 1 NONAME
	_ZN19RMemSpyDriverClient10OpenThreadEjR7RThread @ 2 NONAME
	_ZN19RMemSpyDriverClient10ReadMemoryEjmR5TDes8 @ 3 NONAME
	_ZN19RMemSpyDriverClient11GetCodeSegsEPPvRii @ 4 NONAME
	_ZN19RMemSpyDriverClient11GetCodeSegsEjPPvRi @ 5 NONAME
	_ZN19RMemSpyDriverClient11GetHeapDataEjmR5TDes8RjS2_ @ 6 NONAME
	_ZN19RMemSpyDriverClient11GetThreadsLERK10TProcessIdR6RArrayI9TThreadIdE @ 7 NONAME
	_ZN19RMemSpyDriverClient11ImpersonateEm @ 8 NONAME
	_ZN19RMemSpyDriverClient11OpenProcessEjR8RProcess @ 9 NONAME
	_ZN19RMemSpyDriverClient11SetPriorityEj15TThreadPriority @ 10 NONAME
	_ZN19RMemSpyDriverClient11StreamOpenLEv @ 11 NONAME
	_ZN19RMemSpyDriverClient12GetChunkInfoEPvR22TMemSpyDriverChunkInfo @ 12 NONAME
	_ZN19RMemSpyDriverClient12GetChunkInfoEPvR33TMemSpyDriverChunkInfoWithoutName @ 13 NONAME
	_ZN19RMemSpyDriverClient12GetPAndSInfoEPvR22TMemSpyDriverPAndSInfo @ 14 NONAME
	_ZN19RMemSpyDriverClient12GetStackDataEjR5TDes8Rj23TMemSpyDriverDomainTypei @ 15 NONAME
	_ZN19RMemSpyDriverClient12GetStackInfoEjR22TMemSpyDriverStackInfo @ 16 NONAME
	_ZN19RMemSpyDriverClient12WalkHeapInitEj @ 17 NONAME
	_ZN19RMemSpyDriverClient13GetThreadInfoEjR23TMemSpyDriverThreadInfo @ 18 NONAME
	_ZN19RMemSpyDriverClient13IsDebugKernelEv @ 19 NONAME
	_ZN19RMemSpyDriverClient13WalkHeapCloseEv @ 20 NONAME
	_ZN19RMemSpyDriverClient14GetCodeSegInfoEPvjR24TMemSpyDriverCodeSegInfo @ 21 NONAME
	_ZN19RMemSpyDriverClient14GetProcessInfoEjR24TMemSpyDriverProcessInfo @ 22 NONAME
	_ZN19RMemSpyDriverClient15GetChunkHandlesEPPvRi @ 23 NONAME
	_ZN19RMemSpyDriverClient15GetHeapDataNextEjR5TDes8RjS2_ @ 24 NONAME
	_ZN19RMemSpyDriverClient15GetHeapInfoUserER15TMemSpyHeapInfoj @ 25 NONAME
	_ZN19RMemSpyDriverClient15GetHeapInfoUserER15TMemSpyHeapInfojR6RArrayI21TMemSpyDriverFreeCellE @ 26 NONAME
	_ZN19RMemSpyDriverClient15MemoryModelTypeEv @ 27 NONAME
	_ZN19RMemSpyDriverClient15RoundToPageSizeEm @ 28 NONAME
	_ZN19RMemSpyDriverClient16EventMonitorOpenERj @ 29 NONAME
	_ZN19RMemSpyDriverClient16GetStackDataNextEjR5TDes8Rj23TMemSpyDriverDomainTypei @ 30 NONAME
	_ZN19RMemSpyDriverClient16WalkHeapNextCellEjR21TMemSpyDriverCellTypeRPvRiS4_S4_S4_S3_ @ 31 NONAME
	_ZN19RMemSpyDriverClient17EventMonitorCloseEj @ 32 NONAME
	_ZN19RMemSpyDriverClient17GetHeapInfoKernelER15TMemSpyHeapInfo @ 33 NONAME
	_ZN19RMemSpyDriverClient17GetHeapInfoKernelER15TMemSpyHeapInfoR6RArrayI21TMemSpyDriverFreeCellE @ 34 NONAME
	_ZN19RMemSpyDriverClient18EventMonitorNotifyEjR14TRequestStatusRj @ 35 NONAME
	_ZN19RMemSpyDriverClient19GetContainerHandlesE26TMemSpyDriverContainerTypePPvRi @ 36 NONAME
	_ZN19RMemSpyDriverClient19GetHeapDataKernelLCER15TMemSpyHeapInfoR6RArrayI21TMemSpyDriverFreeCellE @ 37 NONAME
	_ZN19RMemSpyDriverClient19WalkHeapGetCellInfoERPvR21TMemSpyDriverCellTypeRiS4_S4_S4_S1_ @ 38 NONAME
	_ZN19RMemSpyDriverClient20GetGenericHandleInfoEi26TMemSpyDriverContainerTypePvR30TMemSpyDriverHandleInfoGeneric @ 39 NONAME
	_ZN19RMemSpyDriverClient20GetServerSessionInfoEPvR30TMemSpyDriverServerSessionInfo @ 40 NONAME
	_ZN19RMemSpyDriverClient20ProcessThreadsResumeEj @ 41 NONAME
	_ZN19RMemSpyDriverClient20WalkHeapReadCellDataEPvR5TDes8i @ 42 NONAME
	_ZN19RMemSpyDriverClient21ProcessInspectionOpenEj @ 43 NONAME
	_ZN19RMemSpyDriverClient21ProcessThreadsSuspendEj @ 44 NONAME
	_ZN19RMemSpyDriverClient22GetThreadHandlesByTypeEi26TMemSpyDriverContainerTypePPvRi @ 45 NONAME
	_ZN19RMemSpyDriverClient22ProcessInspectionCloseEj @ 46 NONAME
	_ZN19RMemSpyDriverClient23GetProcessHandlesByTypeEi26TMemSpyDriverContainerTypePPvRi @ 47 NONAME
	_ZN19RMemSpyDriverClient23GetReferencesToMyThreadEj @ 48 NONAME
	_ZN19RMemSpyDriverClient23GetServerSessionHandlesEPvPS0_Ri @ 49 NONAME
	_ZN19RMemSpyDriverClient24EventMonitorNotifyCancelEj @ 50 NONAME
	_ZN19RMemSpyDriverClient24GetChunkHandlesForThreadEjPPvRi @ 51 NONAME
	_ZN19RMemSpyDriverClient24GetReferencesToMyProcessEj @ 52 NONAME
	_ZN19RMemSpyDriverClient25GetChunkHandlesForProcessEjPPvRi @ 53 NONAME
	_ZN19RMemSpyDriverClient30GetApproximateKernelObjectSizeE26TMemSpyDriverContainerType @ 54 NONAME
	_ZN19RMemSpyDriverClient31ProcessInspectionRequestChangesEjR14TRequestStatusR34TMemSpyDriverProcessInspectionInfo @ 55 NONAME
	_ZN19RMemSpyDriverClient34ProcessInspectionAutoStartItemsAddEj @ 56 NONAME
	_ZN19RMemSpyDriverClient36ProcessInspectionAutoStartItemsResetEv @ 57 NONAME
	_ZN19RMemSpyDriverClient37ProcessInspectionRequestChangesCancelEj @ 58 NONAME
	_ZN19RMemSpyDriverClient4OpenEv @ 59 NONAME
	_ZN19RMemSpyDriverClient5CloseEv @ 60 NONAME
	_ZN19RMemSpyDriverClient9ThreadEndEj9TExitType @ 61 NONAME
	_ZN22RMemSpyMemStreamReader10ReadInt32LEv @ 62 NONAME
	_ZN22RMemSpyMemStreamReader11ReadUint32LEv @ 63 NONAME
	_ZN22RMemSpyMemStreamReader5CloseEv @ 64 NONAME
	_ZN22RMemSpyMemStreamReader5ReadLER5TDes8 @ 65 NONAME
	_ZN22RMemSpyMemStreamReader5ReadLER6TDes16 @ 66 NONAME
	_ZN19RMemSpyDriverClient26GetCondVarSuspendedThreadsEPvPS0_Ri @ 67 NONAME
	_ZN19RMemSpyDriverClient29GetCondVarSuspendedThreadInfoEPvR39TMemSpyDriverCondVarSuspendedThreadInfo @ 68 NONAME

