EXPORTS
	_Z12StartSessionv @ 1 NONAME
	_ZN11CScriptBase11SetScripterEPFiP13CTestScripter19TStifTSCallBackTypeRK7TDesC16ES1_ @ 2 NONAME
	_ZN11CScriptBase12CancelSignalEv @ 3 NONAME
	_ZN11CScriptBase12EnableSignalER14TRequestStatus @ 4 NONAME
	_ZN11CScriptBase12RunInternalLEPK17TStifFunctionInfoiR15CStifItemParser @ 5 NONAME
	_ZN11CScriptBase12TestModuleIfEv @ 6 NONAME
	_ZN11CScriptBase13CallTestClassERK7TDesC16 @ 7 NONAME
	_ZN11CScriptBase13GetTestObjectERK7TDesC16 @ 8 NONAME
	_ZN11CScriptBase6SignalEi @ 9 NONAME
	_ZN11CScriptBaseC2ER13CTestModuleIf @ 10 NONAME
	_ZN11CStifLogger10OutputTypeEv @ 11 NONAME
	_ZN11CStifLogger14CreationResultEv @ 12 NONAME
	_ZN11CStifLogger14WriteDelimiterERK6TDesC8i @ 13 NONAME
	_ZN11CStifLogger14WriteDelimiterERK7TDesC16i @ 14 NONAME
	_ZN11CStifLogger3LogE11TRefByValueIK6TDesC8Ez @ 15 NONAME
	_ZN11CStifLogger3LogE11TRefByValueIK7TDesC16Ez @ 16 NONAME
	_ZN11CStifLogger3LogERK6TDesC8 @ 17 NONAME
	_ZN11CStifLogger3LogERK7TDesC16 @ 18 NONAME
	_ZN11CStifLogger3LogEi11TRefByValueIK6TDesC8Ez @ 19 NONAME
	_ZN11CStifLogger3LogEi11TRefByValueIK7TDesC16Ez @ 20 NONAME
	_ZN11CStifLogger3LogEiRK6TDesC8 @ 21 NONAME
	_ZN11CStifLogger3LogEiRK7TDesC16 @ 22 NONAME
	_ZN11CStifLogger4NewLERK7TDesC16S2_NS_11TLoggerTypeENS_7TOutputEiiiiiiii @ 23 NONAME
	_ZN11CStifLogger4NewLERK7TDesC16S2_R15TLoggerSettings @ 24 NONAME
	_ZN11CStifLogger8SaveDataER6TDesC8 @ 25 NONAME
	_ZN11CStifLogger8SaveDataER7TDesC16 @ 26 NONAME
	_ZN11CStifParser12NextSectionLERK7TDesC16S2_i @ 27 NONAME
	_ZN11CStifParser4NewLERK7TDesC16NS_12TCommentTypeE @ 28 NONAME
	_ZN11CStifParser4NewLERK7TDesC16S2_NS_12TCommentTypeE @ 29 NONAME
	_ZN11CStifParser8SectionLERK7TDesC16S2_i @ 30 NONAME
	_ZN11CStifParserD0Ev @ 31 NONAME
	_ZN11CStifParserD1Ev @ 32 NONAME
	_ZN11CStifParserD2Ev @ 33 NONAME
	_ZN11TTestResult9SetResultEiRK7TDesC16 @ 34 NONAME
	_ZN11TTestResultC1Ev @ 35 NONAME
	_ZN11TTestResultC2Ev @ 36 NONAME
	_ZN13CTestModuleIf10RemoteSendERK7TDesC16 @ 37 NONAME
	_ZN13CTestModuleIf10StoreStateEiR4TBufILi128EE @ 38 NONAME
	_ZN13CTestModuleIf11CancelEventER8TEventIfP14TRequestStatus @ 39 NONAME
	_ZN13CTestModuleIf11SetBehaviorENS_13TTestBehaviorEPv @ 40 NONAME
	_ZN13CTestModuleIf13RemoteReceiveER6TDes16R14TRequestStatus @ 41 NONAME
	_ZN13CTestModuleIf13SetExitReasonENS_11TExitReasonEi @ 42 NONAME
	_ZN13CTestModuleIf14GetStoredStateERiR4TBufILi128EE @ 43 NONAME
	_ZN13CTestModuleIf14SetAllowResultEi @ 44 NONAME
	_ZN13CTestModuleIf14StifMacroErrorEiPKhPKciiiiiii @ 45 NONAME
	_ZN13CTestModuleIf16CheckAllowResultEi @ 46 NONAME
	_ZN13CTestModuleIf16ResetAllowResultEv @ 47 NONAME
	_ZN13CTestModuleIf19RemoteReceiveCancelEv @ 48 NONAME
	_ZN13CTestModuleIf21GetMeasurementOptionsERi @ 49 NONAME
	_ZN13CTestModuleIf4NewLEP20CTestThreadContainerP15CTestModuleBase @ 50 NONAME
	_ZN13CTestModuleIf5EventER8TEventIf @ 51 NONAME
	_ZN13CTestModuleIf5EventER8TEventIfR14TRequestStatus @ 52 NONAME
	_ZN13CTestModuleIf6PrintfEiRK7TDesC1611TRefByValueIS1_Ez @ 53 NONAME
	_ZN13CTestModuleIf6RebootEi @ 54 NONAME
	_ZN13TTestCaseInfoC1Ev @ 55 NONAME
	_ZN13TTestCaseInfoC2Ev @ 56 NONAME
	_ZN13TTestProgressC1Ev @ 57 NONAME
	_ZN13TTestProgressC2Ev @ 58 NONAME
	_ZN14CStifTFwIfProt10RemoteTypeEi @ 59 NONAME
	_ZN14CStifTFwIfProt10SetCmdTypeENS_8TCmdTypeE @ 60 NONAME
	_ZN14CStifTFwIfProt10SetMsgTypeENS_8TMsgTypeE @ 61 NONAME
	_ZN14CStifTFwIfProt11EventStatusEi @ 62 NONAME
	_ZN14CStifTFwIfProt11SetRespTypeENS_8TMsgTypeE @ 63 NONAME
	_ZN14CStifTFwIfProt14ResultCategoryEi @ 64 NONAME
	_ZN14CStifTFwIfProt15RunStatusParamsEi @ 65 NONAME
	_ZN14CStifTFwIfProt17EventStatusParamsEi @ 66 NONAME
	_ZN14CStifTFwIfProt4NewLEv @ 67 NONAME
	_ZN14CStifTFwIfProt4SetLERK7TDesC16 @ 68 NONAME
	_ZN14CStifTFwIfProt5DstIdEv @ 69 NONAME
	_ZN14CStifTFwIfProt5SrcIdEv @ 70 NONAME
	_ZN14CStifTFwIfProt6AppendEPF7TPtrC16iEi @ 71 NONAME
	_ZN14CStifTFwIfProt6AppendEPF7TPtrC16iEiRK7TDesC16 @ 72 NONAME
	_ZN14CStifTFwIfProt6AppendEPF7TPtrC16iEiS2_i @ 73 NONAME
	_ZN14CStifTFwIfProt6AppendEPF7TPtrC16iEii @ 74 NONAME
	_ZN14CStifTFwIfProt6AppendERK7TDesC16 @ 75 NONAME
	_ZN14CStifTFwIfProt7CmdTypeEi @ 76 NONAME
	_ZN14CStifTFwIfProt7CreateLEi @ 77 NONAME
	_ZN14CStifTFwIfProt7MsgTypeEi @ 78 NONAME
	_ZN14CStifTFwIfProt8AppendIdEm @ 79 NONAME
	_ZN14CStifTFwIfProt8DstDevIdEv @ 80 NONAME
	_ZN14CStifTFwIfProt8SetDstIdEm @ 81 NONAME
	_ZN14CStifTFwIfProt8SetSrcIdEm @ 82 NONAME
	_ZN14CStifTFwIfProt8SrcDevIdEv @ 83 NONAME
	_ZN14CStifTFwIfProt9DstTestIdEv @ 84 NONAME
	_ZN14CStifTFwIfProt9EventTypeEi @ 85 NONAME
	_ZN14CStifTFwIfProt9RespParamEi @ 86 NONAME
	_ZN14CStifTFwIfProt9RunParamsEi @ 87 NONAME
	_ZN14CStifTFwIfProt9RunStatusEi @ 88 NONAME
	_ZN14CStifTFwIfProt9SrcTestIdEv @ 89 NONAME
	_ZN14CStifTFwIfProtD0Ev @ 90 NONAME
	_ZN14CStifTFwIfProtD1Ev @ 91 NONAME
	_ZN14CStifTFwIfProtD2Ev @ 92 NONAME
	_ZN15CStifItemParser10GetNextIntERK7TDesC16Ri @ 93 NONAME
	_ZN15CStifItemParser10GetNextIntERK7TDesC16Rj6TRadix @ 94 NONAME
	_ZN15CStifItemParser10GetNextIntERi @ 95 NONAME
	_ZN15CStifItemParser10GetNextIntERj6TRadix @ 96 NONAME
	_ZN15CStifItemParser11GetNextCharER5TChar @ 97 NONAME
	_ZN15CStifItemParser11GetNextCharERK7TDesC16R5TChar @ 98 NONAME
	_ZN15CStifItemParser11ParsingTypeEv @ 99 NONAME
	_ZN15CStifItemParser13GetNextStringER7TPtrC16 @ 100 NONAME
	_ZN15CStifItemParser13GetNextStringERK7TDesC16R7TPtrC16 @ 101 NONAME
	_ZN15CStifItemParser14SetParsingTypeENS_12TParsingTypeE @ 102 NONAME
	_ZN15CStifItemParser4NewLE7TPtrC16ii @ 103 NONAME
	_ZN15CStifItemParser6GetIntERK7TDesC16Ri @ 104 NONAME
	_ZN15CStifItemParser6GetIntERK7TDesC16Rj6TRadix @ 105 NONAME
	_ZN15CStifItemParser7GetCharERK7TDesC16R5TChar @ 106 NONAME
	_ZN15CStifItemParser9GetStringERK7TDesC16R7TPtrC16 @ 107 NONAME
	_ZN15CStifItemParser9RemainderER7TPtrC16 @ 108 NONAME
	_ZN15TFullTestResultC1Ev @ 109 NONAME
	_ZN15TFullTestResultC2Ev @ 110 NONAME
	_ZN18CStifSectionParser11GetNextLineER7TPtrC16 @ 111 NONAME
	_ZN18CStifSectionParser11GetNextLineERK7TDesC16R7TPtrC1617TTagToReturnValue @ 112 NONAME
	_ZN18CStifSectionParser11GetPositionEv @ 113 NONAME
	_ZN18CStifSectionParser11SetPositionEi @ 114 NONAME
	_ZN18CStifSectionParser11SubSectionLERK7TDesC16S2_i @ 115 NONAME
	_ZN18CStifSectionParser12GetItemLineLERK7TDesC1617TTagToReturnValue @ 116 NONAME
	_ZN18CStifSectionParser15NextSubSectionLERK7TDesC16S2_i @ 117 NONAME
	_ZN18CStifSectionParser16GetNextItemLineLERK7TDesC1617TTagToReturnValue @ 118 NONAME
	_ZN18CStifSectionParser16GetNextItemLineLEv @ 119 NONAME
	_ZN18CStifSectionParser7GetLineERK7TDesC16R7TPtrC1617TTagToReturnValue @ 120 NONAME
	_ZN18TErrorNotificationC1Ev @ 121 NONAME
	_ZN18TErrorNotificationC2Ev @ 122 NONAME
	_ZN20CSTIFTestMeasurement4NewLEP15CTestModuleBaseNS_20TSTIFMeasurementTypeERK7TDesC16 @ 123 NONAME
	_ZN20CSTIFTestMeasurement4StopEv @ 124 NONAME
	_ZN20CSTIFTestMeasurement5StartEv @ 125 NONAME
	_ZN21CTestModuleParamVer014NewLEv @ 126 NONAME
	_ZN21CTestModuleParamVer01D0Ev @ 127 NONAME
	_ZN21CTestModuleParamVer01D1Ev @ 128 NONAME
	_ZN21CTestModuleParamVer01D2Ev @ 129 NONAME
	_ZN21MSTIFTestInterference4NewLEP15CTestModuleBaseNS_29TStifTestInterferenceCategoryE @ 130 NONAME
	_ZN9TTestInfoC1Ev @ 131 NONAME
	_ZN9TTestInfoC2Ev @ 132 NONAME
	_ZTI10CTxtLogger @ 133 NONAME ; #<TI>#
	_ZTI11CDataLogger @ 134 NONAME ; #<TI>#
	_ZTI11CFileOutput @ 135 NONAME ; #<TI>#
	_ZTI11CHtmlLogger @ 136 NONAME ; #<TI>#
	_ZTI11CNullOutput @ 137 NONAME ; #<TI>#
	_ZTI11CScriptBase @ 138 NONAME ; #<TI>#
	_ZTI11CStifLogger @ 139 NONAME ; #<TI>#
	_ZTI11CStifParser @ 140 NONAME ; #<TI>#
	_ZTI13CRDebugOutput @ 141 NONAME ; #<TI>#
	_ZTI13CTestModuleIf @ 142 NONAME ; #<TI>#
	_ZTI14CStifTFwIfProt @ 143 NONAME ; #<TI>#
	_ZTI15CStifItemParser @ 144 NONAME ; #<TI>#
	_ZTI18CStifSectionParser @ 145 NONAME ; #<TI>#
	_ZTI21CTestModuleParamVer01 @ 146 NONAME ; #<TI>#
	_ZTI25TDesLoggerOverflowHandler @ 147 NONAME ; #<TI>#
	_ZTI26TDes8LoggerOverflowHandler @ 148 NONAME ; #<TI>#
	_ZTI7COutput @ 149 NONAME ; #<TI>#
	_ZTV10CTxtLogger @ 150 NONAME ; #<VT>#
	_ZTV11CDataLogger @ 151 NONAME ; #<VT>#
	_ZTV11CFileOutput @ 152 NONAME ; #<VT>#
	_ZTV11CHtmlLogger @ 153 NONAME ; #<VT>#
	_ZTV11CNullOutput @ 154 NONAME ; #<VT>#
	_ZTV11CScriptBase @ 155 NONAME ; #<VT>#
	_ZTV11CStifLogger @ 156 NONAME ; #<VT>#
	_ZTV11CStifParser @ 157 NONAME ; #<VT>#
	_ZTV13CRDebugOutput @ 158 NONAME ; #<VT>#
	_ZTV13CTestModuleIf @ 159 NONAME ; #<VT>#
	_ZTV14CStifTFwIfProt @ 160 NONAME ; #<VT>#
	_ZTV15CStifItemParser @ 161 NONAME ; #<VT>#
	_ZTV18CStifSectionParser @ 162 NONAME ; #<VT>#
	_ZTV21CTestModuleParamVer01 @ 163 NONAME ; #<VT>#
	_ZTV25TDesLoggerOverflowHandler @ 164 NONAME ; #<VT>#
	_ZTV26TDes8LoggerOverflowHandler @ 165 NONAME ; #<VT>#
	_ZTV7COutput @ 166 NONAME ; #<VT>#
	_ZN13CTestModuleIf13StopExecutionE18TStopExecutionTypei @ 167 NONAME
	_ZN11CScriptBase16GetConstantValueERK7TDesC16R6TDes16 @ 168 NONAME
	_ZN11CScriptBase16GetConstantValueERK7TDesC16Rd @ 169 NONAME
	_ZN11CScriptBase16GetConstantValueERK7TDesC16Ri @ 170 NONAME
	_ZN9TStifUtil16CorrectFilePathLER6TDes16 @ 171 NONAME
	_ZN13CTestModuleIf17GetTestCaseTitleLER6TDes16 @ 172 NONAME
	_ZN9TStifUtil11STIFVersionERiS0_S0_R6TDes16 @ 173 NONAME
	_ZN13CTestModuleIf13GetUiEnvProxyEv @ 174 NONAME
	_ZN13CTestModuleIf9UITestingEv @ 175 NONAME
	_ZN13CTestModuleIf21SendTestModuleVersionE8TVersion4TBufILi256EE @ 176 NONAME
	_ZN13CTestModuleIf21SendTestModuleVersionER8TVersionRK7TDesC16i @ 177 NONAME
	_ZN11CScriptBase20SetResultDescriptionERK7TDesC16 @ 178 NONAME
	_ZN11CScriptBase13GetLocalValueERK7TDesC16R6TDes16 @ 179 NONAME
	_ZN11CScriptBase13GetLocalValueERK7TDesC16Rd @ 180 NONAME
	_ZN11CScriptBase13GetLocalValueERK7TDesC16Ri @ 181 NONAME
	_ZN11CScriptBase13SetLocalValueERK7TDesC16S2_ @ 182 NONAME
	_ZN11CScriptBase13SetLocalValueERK7TDesC16d @ 183 NONAME
	_ZN11CScriptBase13SetLocalValueERK7TDesC16i @ 184 NONAME
	_ZNK13CTestModuleIf20GetTestCaseArgumentsEv @ 185 NONAME

