EXPORTS
	_ZN14CMemSpyApiHeap11BaseAddressEv @ 1 NONAME
	_ZN14CMemSpyApiHeap11BiggestFreeEv @ 2 NONAME
	_ZN14CMemSpyApiHeap11HeaderSizeAEv @ 3 NONAME
	_ZN14CMemSpyApiHeap11HeaderSizeFEv @ 4 NONAME
	_ZN14CMemSpyApiHeap12FreeOverheadEv @ 5 NONAME
	_ZN14CMemSpyApiHeap13FragmentationEv @ 6 NONAME
	_ZN14CMemSpyApiHeap13TotalOverheadEv @ 7 NONAME
	_ZN14CMemSpyApiHeap14SlackFreeSpaceEv @ 8 NONAME
	_ZN14CMemSpyApiHeap16AllocationsCountEv @ 9 NONAME
	_ZN14CMemSpyApiHeap16TotalAllocationsEv @ 10 NONAME
	_ZN14CMemSpyApiHeap17BiggestAllocationEv @ 11 NONAME
	_ZN14CMemSpyApiHeap18AllocationOverheadEv @ 12 NONAME
	_ZN14CMemSpyApiHeap21DebugAllocatorLibraryEv @ 13 NONAME
	_ZN14CMemSpyApiHeap4SizeEv @ 14 NONAME
	_ZN14CMemSpyApiHeap4TypeEv @ 15 NONAME
	_ZN14CMemSpyApiHeap6SharedEv @ 16 NONAME
	_ZN14CMemSpyApiHeap8OverheadEv @ 17 NONAME
	_ZN14CMemSpyApiHeap9ChunkSizeEv @ 18 NONAME
	_ZN14CMemSpyApiHeap9FreeCountEv @ 19 NONAME
	_ZN14CMemSpyApiHeap9MaxLengthEv @ 20 NONAME
	_ZN14CMemSpyApiHeap9MinLengthEv @ 21 NONAME
	_ZN14CMemSpyApiHeap9TotalFreeEv @ 22 NONAME
	_ZN14CMemSpyApiHeapD1Ev @ 23 NONAME
	_ZN14CMemSpyApiHeapD2Ev @ 24 NONAME
	_ZN14RMemSpySession10EndThreadLE9TThreadId14TMemSpyEndType @ 25 NONAME
	_ZN14RMemSpySession11EndProcessLE10TProcessId14TMemSpyEndType @ 26 NONAME
	_ZN14RMemSpySession11GetServersLER6RArrayIP16CMemSpyApiServerE @ 27 NONAME
	_ZN14RMemSpySession11GetServersLER6RArrayIP16CMemSpyApiServerE9TSortType @ 28 NONAME
	_ZN14RMemSpySession11GetSwmtModeERN38TMemSpyEngineHelperSysMemTrackerConfig30TMemSpyEngineSysMemTrackerModeE @ 29 NONAME
	_ZN14RMemSpySession11GetThreadsLE10TProcessIdR6RArrayIP16CMemSpyApiThreadE9TSortType @ 30 NONAME
	_ZN14RMemSpySession11SetSwmtModeEN38TMemSpyEngineHelperSysMemTrackerConfig30TMemSpyEngineSysMemTrackerModeE @ 31 NONAME
	_ZN14RMemSpySession13GetOutputSinkER15TMemSpySinkType @ 32 NONAME
	_ZN14RMemSpySession13GetProcessesLER6RArrayIP17CMemSpyApiProcessE9TSortType @ 33 NONAME
	_ZN14RMemSpySession13GetSwmtFilterER4TBufILi128EE @ 34 NONAME
	_ZN14RMemSpySession13OutputAOListLE9TThreadId25TMemSpyThreadInfoItemType @ 35 NONAME
	_ZN14RMemSpySession13SetSwmtFilterERK7TDesC16 @ 36 NONAME
	_ZN14RMemSpySession14DumpKernelHeapEv @ 37 NONAME
	_ZN14RMemSpySession14IsSwmtRunningLEv @ 38 NONAME
	_ZN14RMemSpySession14OutputHeapDataER14TRequestStatus @ 39 NONAME
	_ZN14RMemSpySession14OutputHeapDataEv @ 40 NONAME
	_ZN14RMemSpySession14OutputHeapInfoER14TRequestStatus @ 41 NONAME
	_ZN14RMemSpySession14StartSwmtTimerER14TRequestStatus @ 42 NONAME
	_ZN14RMemSpySession14StopSwmtTimerLEv @ 43 NONAME
	_ZN14RMemSpySession14SwitchToThreadE9TThreadIdi @ 44 NONAME
	_ZN14RMemSpySession15ForceSwmtUpdateER14TRequestStatus @ 45 NONAME
	_ZN14RMemSpySession15GetInfoItemTypeEi9TThreadIdR25TMemSpyThreadInfoItemType @ 46 NONAME
	_ZN14RMemSpySession15OutputPhoneInfoER14TRequestStatus @ 47 NONAME
	_ZN14RMemSpySession15OutputPhoneInfoEv @ 48 NONAME
	_ZN14RMemSpySession15OutputStackInfoER14TRequestStatus @ 49 NONAME
	_ZN14RMemSpySession15StartSwmtTimerLEi @ 50 NONAME
	_ZN14RMemSpySession15StartSwmtTimerLEv @ 51 NONAME
	_ZN14RMemSpySession15SwitchToProcessE10TProcessIdi @ 52 NONAME
	_ZN14RMemSpySession16ForceSwmtUpdateLEv @ 53 NONAME
	_ZN14RMemSpySession16GetKernelObjectsER6RArrayIP22CMemSpyApiKernelObjectE @ 54 NONAME
	_ZN14RMemSpySession16GetWindowGroupsLER6RArrayIP21CMemSpyApiWindowGroupE @ 55 NONAME
	_ZN14RMemSpySession16OutputStackDataLE9TThreadId23TMemSpyDriverDomainType @ 56 NONAME
	_ZN14RMemSpySession16OutputStackInfoLE9TThreadId @ 57 NONAME
	_ZN14RMemSpySession17GetKernelObjectsLER6RArrayIP22CMemSpyApiKernelObjectE @ 58 NONAME
	_ZN14RMemSpySession17SwitchOutputSinkLE15TMemSpySinkType @ 59 NONAME
	_ZN14RMemSpySession17SwmtResetTrackingEv @ 60 NONAME
	_ZN14RMemSpySession18GetEComCategoriesLER6RArrayIP22CMemSpyApiEComCategoryE @ 61 NONAME
	_ZN14RMemSpySession18GetEComInterfacesLE4TUidR6RArrayIP23CMemSpyApiEComInterfaceE @ 62 NONAME
	_ZN14RMemSpySession18GetSwmtCategoriesLERi @ 63 NONAME
	_ZN14RMemSpySession18GetSwmtCyclesCountEv @ 64 NONAME
	_ZN14RMemSpySession18GetThreadInfoItemsER6RArrayIP24CMemSpyApiThreadInfoItemE9TThreadId25TMemSpyThreadInfoItemType @ 65 NONAME
	_ZN14RMemSpySession18SetSwmtCategoriesLEi @ 66 NONAME
	_ZN14RMemSpySession18SetThreadPriorityLE9TThreadIdi @ 67 NONAME
	_ZN14RMemSpySession19GetProcessIdByNameLERK7TDesC16 @ 68 NONAME
	_ZN14RMemSpySession19GetThreadInfoItemsLER6RArrayIP24CMemSpyApiThreadInfoItemE9TThreadId25TMemSpyThreadInfoItemType @ 69 NONAME
	_ZN14RMemSpySession19OutputHeapInfoUserLE9TThreadId @ 70 NONAME
	_ZN14RMemSpySession19OutputUserStackDataER14TRequestStatus @ 71 NONAME
	_ZN14RMemSpySession19SwitchOutputToFileLERK7TDesC16 @ 72 NONAME
	_ZN14RMemSpySession20GetKernelObjectItemsER6RArrayIP26CMemSpyApiKernelObjectItemE26TMemSpyDriverContainerType @ 73 NONAME
	_ZN14RMemSpySession20OutputKernelHeapDataER14TRequestStatus @ 74 NONAME
	_ZN14RMemSpySession20OutputKernelObjectsLEv @ 75 NONAME
	_ZN14RMemSpySession20SwitchOutputToTraceLEv @ 76 NONAME
	_ZN14RMemSpySession21GetKernelObjectItemsLER6RArrayIP26CMemSpyApiKernelObjectItemE26TMemSpyDriverContainerType @ 77 NONAME
	_ZN14RMemSpySession21GetSwmtTimerIntervalLERi @ 78 NONAME
	_ZN14RMemSpySession21OutputCompactHeapInfoER14TRequestStatus @ 79 NONAME
	_ZN14RMemSpySession21OutputHeapCellListingER14TRequestStatus @ 80 NONAME
	_ZN14RMemSpySession21OutputKernelHeapDataLEv @ 81 NONAME
	_ZN14RMemSpySession21OutputKernelStackDataER14TRequestStatus @ 82 NONAME
	_ZN14RMemSpySession21OutputThreadCellListLE9TThreadId @ 83 NONAME
	_ZN14RMemSpySession21OutputThreadHeapDataLE9TThreadId @ 84 NONAME
	_ZN14RMemSpySession21OutputThreadHeapDataLERK7TDesC16 @ 85 NONAME
	_ZN14RMemSpySession21SetSwmtTimerIntervalLEi @ 86 NONAME
	_ZN14RMemSpySession22GetProcessIdByThreadIdER10TProcessId9TThreadId @ 87 NONAME
	_ZN14RMemSpySession22OutputCompactHeapInfoLEv @ 88 NONAME
	_ZN14RMemSpySession22OutputCompactStackInfoER14TRequestStatus @ 89 NONAME
	_ZN14RMemSpySession23GetEComImplementationsLE4TUidR6RArrayIP28CMemSpyApiEComImplementationE @ 90 NONAME
	_ZN14RMemSpySession23OutputCompactStackInfoLEv @ 91 NONAME
	_ZN14RMemSpySession23OutputDetailedPhoneInfoER14TRequestStatus @ 92 NONAME
	_ZN14RMemSpySession24GetMemoryTrackingCyclesLER6RArrayIP29CMemSpyApiMemoryTrackingCycleE @ 93 NONAME
	_ZN14RMemSpySession24GetSwmtHeapDumpsEnabledLERi @ 94 NONAME
	_ZN14RMemSpySession24OutputThreadInfoHandlesLE9TThreadId @ 95 NONAME
	_ZN14RMemSpySession24ServerListOutputGenericLEi @ 96 NONAME
	_ZN14RMemSpySession24SetSwmtHeapDumpsEnabledLEi @ 97 NONAME
	_ZN14RMemSpySession26CancelDeviceWideOperationLEv @ 98 NONAME
	_ZN14RMemSpySession26OutputAllContainerContentsEv @ 99 NONAME
	_ZN14RMemSpySession27SetSwmtAutoStartProcessListEP13CArrayFixFlatI4TUidE @ 100 NONAME
	_ZN14RMemSpySession31ThreadSystemPermanentOrCriticalE9TThreadIdi @ 101 NONAME
	_ZN14RMemSpySession32ProcessSystemPermanentOrCriticalE10TProcessIdi @ 102 NONAME
	_ZN14RMemSpySession33NotifyDeviceWideOperationProgressER34TMemSpyDeviceWideOperationProgressR14TRequestStatus @ 103 NONAME
	_ZN14RMemSpySession7ConnectEv @ 104 NONAME
	_ZN14RMemSpySession7GetHeapEv @ 105 NONAME
	_ZN14RMemSpySession8GetHeapLEv @ 106 NONAME
	_ZN14RMemSpySessionC1Ev @ 107 NONAME
	_ZN14RMemSpySessionC2Ev @ 108 NONAME
	_ZN16CMemSpyApiServerD1Ev @ 109 NONAME
	_ZN16CMemSpyApiServerD2Ev @ 110 NONAME
	_ZN16CMemSpyApiThreadD1Ev @ 111 NONAME
	_ZN16CMemSpyApiThreadD2Ev @ 112 NONAME
	_ZN17CMemSpyApiProcessD1Ev @ 113 NONAME
	_ZN17CMemSpyApiProcessD2Ev @ 114 NONAME
	_ZN21CMemSpyApiWindowGroupD0Ev @ 115 NONAME
	_ZN21CMemSpyApiWindowGroupD1Ev @ 116 NONAME
	_ZN21CMemSpyApiWindowGroupD2Ev @ 117 NONAME
	_ZN22CMemSpyApiEComCategoryD0Ev @ 118 NONAME
	_ZN22CMemSpyApiEComCategoryD1Ev @ 119 NONAME
	_ZN22CMemSpyApiEComCategoryD2Ev @ 120 NONAME
	_ZN22CMemSpyApiKernelObjectD1Ev @ 121 NONAME
	_ZN22CMemSpyApiKernelObjectD2Ev @ 122 NONAME
	_ZN23CMemSpyApiEComInterfaceD0Ev @ 123 NONAME
	_ZN23CMemSpyApiEComInterfaceD1Ev @ 124 NONAME
	_ZN23CMemSpyApiEComInterfaceD2Ev @ 125 NONAME
	_ZN24CMemSpyApiThreadInfoItemD1Ev @ 126 NONAME
	_ZN24CMemSpyApiThreadInfoItemD2Ev @ 127 NONAME
	_ZN26CMemSpyApiKernelObjectItem12OpenChannelsEv @ 128 NONAME
	_ZN26CMemSpyApiKernelObjectItem15AddressOfServerEv @ 129 NONAME
	_ZN26CMemSpyApiKernelObjectItem16AddressOfCodeSegEv @ 130 NONAME
	_ZN26CMemSpyApiKernelObjectItem20AddressOfKernelOwnerEv @ 131 NONAME
	_ZN26CMemSpyApiKernelObjectItem21AddressOfOwningThreadEv @ 132 NONAME
	_ZN26CMemSpyApiKernelObjectItem22AddressOfOwningProcessEv @ 133 NONAME
	_ZN26CMemSpyApiKernelObjectItem26AddressOfDataBssStackChunkEv @ 134 NONAME
	_ZN26CMemSpyApiKernelObjectItemD1Ev @ 135 NONAME
	_ZN26CMemSpyApiKernelObjectItemD2Ev @ 136 NONAME
	_ZN28CMemSpyApiEComImplementationD0Ev @ 137 NONAME
	_ZN28CMemSpyApiEComImplementationD1Ev @ 138 NONAME
	_ZN28CMemSpyApiEComImplementationD2Ev @ 139 NONAME
	_ZN29CMemSpyApiMemoryTrackingCycleD1Ev @ 140 NONAME
	_ZN29CMemSpyApiMemoryTrackingCycleD2Ev @ 141 NONAME
	_ZNK16CMemSpyApiServer12SessionCountEv @ 142 NONAME
	_ZNK16CMemSpyApiServer4NameEv @ 143 NONAME
	_ZNK16CMemSpyApiServer8ThreadIdEv @ 144 NONAME
	_ZNK16CMemSpyApiServer9ProcessIdEv @ 145 NONAME
	_ZNK16CMemSpyApiThread10AttributesEv @ 146 NONAME
	_ZNK16CMemSpyApiThread12RequestCountEv @ 147 NONAME
	_ZNK16CMemSpyApiThread13ThreadHandlesEv @ 148 NONAME
	_ZNK16CMemSpyApiThread14ProcessHandlesEv @ 149 NONAME
	_ZNK16CMemSpyApiThread14ThreadPriorityEv @ 150 NONAME
	_ZNK16CMemSpyApiThread15ProcessPriorityEv @ 151 NONAME
	_ZNK16CMemSpyApiThread17ThreadNumberUsingEv @ 152 NONAME
	_ZNK16CMemSpyApiThread18ProcessNumberUsingEv @ 153 NONAME
	_ZNK16CMemSpyApiThread2IdEv @ 154 NONAME
	_ZNK16CMemSpyApiThread3SIDEv @ 155 NONAME
	_ZNK16CMemSpyApiThread3VIDEv @ 156 NONAME
	_ZNK16CMemSpyApiThread4NameEv @ 157 NONAME
	_ZNK16CMemSpyApiThread6CpuUseEv @ 158 NONAME
	_ZNK16CMemSpyApiThread8ExitTypeEv @ 159 NONAME
	_ZNK16CMemSpyApiThread9ProcessIdEv @ 160 NONAME
	_ZNK17CMemSpyApiProcess10ExitReasonEv @ 161 NONAME
	_ZNK17CMemSpyApiProcess11ThreadCountEv @ 162 NONAME
	_ZNK17CMemSpyApiProcess12ExitCategoryEv @ 163 NONAME
	_ZNK17CMemSpyApiProcess2IdEv @ 164 NONAME
	_ZNK17CMemSpyApiProcess3SIDEv @ 165 NONAME
	_ZNK17CMemSpyApiProcess3VIDEv @ 166 NONAME
	_ZNK17CMemSpyApiProcess4NameEv @ 167 NONAME
	_ZNK17CMemSpyApiProcess6IsDeadEv @ 168 NONAME
	_ZNK17CMemSpyApiProcess8ExitTypeEv @ 169 NONAME
	_ZNK17CMemSpyApiProcess8PriorityEv @ 170 NONAME
	_ZNK21CMemSpyApiWindowGroup15OrdinalPositionEv @ 171 NONAME
	_ZNK21CMemSpyApiWindowGroup17WindowGroupHandleEv @ 172 NONAME
	_ZNK21CMemSpyApiWindowGroup2IdEv @ 173 NONAME
	_ZNK21CMemSpyApiWindowGroup3UidEv @ 174 NONAME
	_ZNK21CMemSpyApiWindowGroup4NameEv @ 175 NONAME
	_ZNK21CMemSpyApiWindowGroup6IsBusyEv @ 176 NONAME
	_ZNK21CMemSpyApiWindowGroup7CaptionEv @ 177 NONAME
	_ZNK21CMemSpyApiWindowGroup7DocNameEv @ 178 NONAME
	_ZNK21CMemSpyApiWindowGroup8FullNameEv @ 179 NONAME
	_ZNK21CMemSpyApiWindowGroup8IsHiddenEv @ 180 NONAME
	_ZNK21CMemSpyApiWindowGroup8IsSystemEv @ 181 NONAME
	_ZNK21CMemSpyApiWindowGroup8PriorityEv @ 182 NONAME
	_ZNK21CMemSpyApiWindowGroup8ThreadIdEv @ 183 NONAME
	_ZNK21CMemSpyApiWindowGroup9IsFocusedEv @ 184 NONAME
	_ZNK22CMemSpyApiEComCategory14InterfaceCountEv @ 185 NONAME
	_ZNK22CMemSpyApiEComCategory2IdEv @ 186 NONAME
	_ZNK22CMemSpyApiEComCategory4NameEv @ 187 NONAME
	_ZNK22CMemSpyApiKernelObject4NameEv @ 188 NONAME
	_ZNK22CMemSpyApiKernelObject4SizeEv @ 189 NONAME
	_ZNK22CMemSpyApiKernelObject4TypeEv @ 190 NONAME
	_ZNK22CMemSpyApiKernelObject5CountEv @ 191 NONAME
	_ZNK23CMemSpyApiEComInterface19ImplementationCountEv @ 192 NONAME
	_ZNK23CMemSpyApiEComInterface2IdEv @ 193 NONAME
	_ZNK23CMemSpyApiEComInterface4NameEv @ 194 NONAME
	_ZNK24CMemSpyApiThreadInfoItem5ValueEv @ 195 NONAME
	_ZNK24CMemSpyApiThreadInfoItem7CaptionEv @ 196 NONAME
	_ZNK26CMemSpyApiKernelObjectItem10AttributesEv @ 197 NONAME
	_ZNK26CMemSpyApiKernelObjectItem10NameDetailEv @ 198 NONAME
	_ZNK26CMemSpyApiKernelObjectItem10ProtectionEv @ 199 NONAME
	_ZNK26CMemSpyApiKernelObjectItem10TimerStateEv @ 200 NONAME
	_ZNK26CMemSpyApiKernelObjectItem11AccessCountEv @ 201 NONAME
	_ZNK26CMemSpyApiKernelObjectItem11NameOfOwnerEv @ 202 NONAME
	_ZNK26CMemSpyApiKernelObjectItem11SessionTypeEv @ 203 NONAME
	_ZNK26CMemSpyApiKernelObjectItem12RestrictionsEv @ 204 NONAME
	_ZNK26CMemSpyApiKernelObjectItem12SecurityZoneEv @ 205 NONAME
	_ZNK26CMemSpyApiKernelObjectItem14SvrSessionTypeEv @ 206 NONAME
	_ZNK26CMemSpyApiKernelObjectItem16ControllingOwnerEv @ 207 NONAME
	_ZNK26CMemSpyApiKernelObjectItem16TotalAccessCountEv @ 208 NONAME
	_ZNK26CMemSpyApiKernelObjectItem2IdEv @ 209 NONAME
	_ZNK26CMemSpyApiKernelObjectItem3TopEv @ 210 NONAME
	_ZNK26CMemSpyApiKernelObjectItem4NameEv @ 211 NONAME
	_ZNK26CMemSpyApiKernelObjectItem4SizeEv @ 212 NONAME
	_ZNK26CMemSpyApiKernelObjectItem4TypeEv @ 213 NONAME
	_ZNK26CMemSpyApiKernelObjectItem5CountEv @ 214 NONAME
	_ZNK26CMemSpyApiKernelObjectItem5OrderEv @ 215 NONAME
	_ZNK26CMemSpyApiKernelObjectItem5StateEv @ 216 NONAME
	_ZNK26CMemSpyApiKernelObjectItem6BottomEv @ 217 NONAME
	_ZNK26CMemSpyApiKernelObjectItem6HandleEv @ 218 NONAME
	_ZNK26CMemSpyApiKernelObjectItem7ChangesEv @ 219 NONAME
	_ZNK26CMemSpyApiKernelObjectItem7MapAttrEv @ 220 NONAME
	_ZNK26CMemSpyApiKernelObjectItem7MaxSizeEv @ 221 NONAME
	_ZNK26CMemSpyApiKernelObjectItem7VersionEv @ 222 NONAME
	_ZNK26CMemSpyApiKernelObjectItem8MapCountEv @ 223 NONAME
	_ZNK26CMemSpyApiKernelObjectItem8MsgCountEv @ 224 NONAME
	_ZNK26CMemSpyApiKernelObjectItem8MsgLimitEv @ 225 NONAME
	_ZNK26CMemSpyApiKernelObjectItem8PriorityEv @ 226 NONAME
	_ZNK26CMemSpyApiKernelObjectItem8StartPosEv @ 227 NONAME
	_ZNK26CMemSpyApiKernelObjectItem8UniqueIDEv @ 228 NONAME
	_ZNK26CMemSpyApiKernelObjectItem9ChunkTypeEv @ 229 NONAME
	_ZNK26CMemSpyApiKernelObjectItem9CreatorIdEv @ 230 NONAME
	_ZNK26CMemSpyApiKernelObjectItem9ParseMaskEv @ 231 NONAME
	_ZNK26CMemSpyApiKernelObjectItem9ResettingEv @ 232 NONAME
	_ZNK26CMemSpyApiKernelObjectItem9TimerTypeEv @ 233 NONAME
	_ZNK26CMemSpyApiKernelObjectItem9UnitsMaskEv @ 234 NONAME
	_ZNK26CMemSpyApiKernelObjectItem9WaitCountEv @ 235 NONAME
	_ZNK28CMemSpyApiEComImplementation10OpaqueDataEv @ 236 NONAME
	_ZNK28CMemSpyApiEComImplementation17ImplementationUidEv @ 237 NONAME
	_ZNK28CMemSpyApiEComImplementation4NameEv @ 238 NONAME
	_ZNK28CMemSpyApiEComImplementation5DriveEv @ 239 NONAME
	_ZNK28CMemSpyApiEComImplementation7RomOnlyEv @ 240 NONAME
	_ZNK28CMemSpyApiEComImplementation7VersionEv @ 241 NONAME
	_ZNK28CMemSpyApiEComImplementation8DataTypeEv @ 242 NONAME
	_ZNK28CMemSpyApiEComImplementation8DisabledEv @ 243 NONAME
	_ZNK28CMemSpyApiEComImplementation8RomBasedEv @ 244 NONAME
	_ZNK28CMemSpyApiEComImplementation8VendorIdEv @ 245 NONAME
	_ZNK29CMemSpyApiMemoryTrackingCycle10FreeMemoryEv @ 246 NONAME
	_ZNK29CMemSpyApiMemoryTrackingCycle11ChangeCountEv @ 247 NONAME
	_ZNK29CMemSpyApiMemoryTrackingCycle11CycleNumberEv @ 248 NONAME
	_ZNK29CMemSpyApiMemoryTrackingCycle11MemoryDeltaEv @ 249 NONAME
	_ZNK29CMemSpyApiMemoryTrackingCycle17PreviousCycleDiffEv @ 250 NONAME
	_ZNK29CMemSpyApiMemoryTrackingCycle4TimeEv @ 251 NONAME
	_ZNK29CMemSpyApiMemoryTrackingCycle7CaptionEv @ 252 NONAME
	_ZNK34TMemSpyDeviceWideOperationProgress11DescriptionEv @ 253 NONAME
	_ZNK34TMemSpyDeviceWideOperationProgress8ProgressEv @ 254 NONAME

