EXPORTS
	??0RTestServer@@QAE@XZ @ 1 NONAME ; RTestServer::RTestServer(void)
	?CancelAsyncRequest@RTestExecution@@QAEHH@Z @ 2 NONAME ; int RTestExecution::CancelAsyncRequest(int)
	?CancelAsyncRequest@RTestModule@@QAEHH@Z @ 3 NONAME ; int RTestModule::CancelAsyncRequest(int)
	?Close@RTestExecution@@QAEXXZ @ 4 NONAME ; void RTestExecution::Close(void)
	?Close@RTestModule@@QAEXXZ @ 5 NONAME ; void RTestModule::Close(void)
	?Close@RTestServer@@QAEXXZ @ 6 NONAME ; void RTestServer::Close(void)
	?Connect@RTestServer@@QAEHABV?$TBuf@$0BAA@@@ABVTDesC16@@@Z @ 7 NONAME ; int RTestServer::Connect(class TBuf<256> const &, class TDesC16 const &)
	?EnumerateTestCases@RTestModule@@QAEXAAVTDesC16@@AAV?$TPckgBuf@H@@AAVTRequestStatus@@@Z @ 8 NONAME ; void RTestModule::EnumerateTestCases(class TDesC16 &, class TPckgBuf<int> &, class TRequestStatus &)
	?ErrorNotification@RTestModule@@QAEXAAV?$TPckg@VTErrorNotification@@@@AAVTRequestStatus@@@Z @ 9 NONAME ; void RTestModule::ErrorNotification(class TPckg<class TErrorNotification> &, class TRequestStatus &)
	?GetTestCases@RTestModule@@QAEHAAV?$CFixedFlatArray@VTTestCaseInfo@@@@@Z @ 10 NONAME ; int RTestModule::GetTestCases(class CFixedFlatArray<class TTestCaseInfo> &)
	?NotifyEvent@RTestExecution@@QAEHAAV?$TPckg@VTEventIf@@@@AAVTRequestStatus@@H@Z @ 11 NONAME ; int RTestExecution::NotifyEvent(class TPckg<class TEventIf> &, class TRequestStatus &, int)
	?NotifyProgress@RTestExecution@@QAEHAAV?$TPckg@VTTestProgress@@@@AAVTRequestStatus@@@Z @ 12 NONAME ; int RTestExecution::NotifyProgress(class TPckg<class TTestProgress> &, class TRequestStatus &)
	?NotifyRemoteCmd@RTestExecution@@QAEHAAV?$TPckg@W4TStifCommand@@@@AAV?$TPckg@H@@AAVTRequestStatus@@@Z @ 13 NONAME ; int RTestExecution::NotifyRemoteCmd(class TPckg<enum TStifCommand> &, class TPckg<int> &, class TRequestStatus &)
	?Open@RTestExecution@@QAEHAAVRTestServer@@HABV?$TBuf@$0BAA@@@@Z @ 14 NONAME ; int RTestExecution::Open(class RTestServer &, int, class TBuf<256> const &)
	?Open@RTestModule@@QAEHAAVRTestServer@@AAV?$TBuf@$0BAA@@@@Z @ 15 NONAME ; int RTestModule::Open(class RTestServer &, class TBuf<256> &)
	?Pause@RTestExecution@@QAEHXZ @ 16 NONAME ; int RTestExecution::Pause(void)
	?ReadRemoteCmdInfo@RTestExecution@@QAEHAAVTDes8@@W4TStifCommand@@H@Z @ 17 NONAME ; int RTestExecution::ReadRemoteCmdInfo(class TDes8 &, enum TStifCommand, int)
	?Resume@RTestExecution@@QAEHXZ @ 18 NONAME ; int RTestExecution::Resume(void)
	?RunTestCase@RTestExecution@@QAEXAAV?$TPckg@VTFullTestResult@@@@AAVTRequestStatus@@@Z @ 19 NONAME ; void RTestExecution::RunTestCase(class TPckg<class TFullTestResult> &, class TRequestStatus &)
	?StartNewServer@@YAHABV?$TBuf@$0BAA@@@AAV1@@Z @ 20 NONAME ; int StartNewServer(class TBuf<256> const &, class TBuf<256> &)
	?StartNewServer@@YAHABV?$TBuf@$0BAA@@@AAV1@HVRSemaphore@@@Z @ 21 NONAME ; int StartNewServer(class TBuf<256> const &, class TBuf<256> &, int, class RSemaphore)
	?Version@RTestServer@@QBE?AVTVersion@@XZ @ 22 NONAME ; class TVersion RTestServer::Version(void) const
	?GetServerThreadId@RTestServer@@QAEHAAVTThreadId@@@Z @ 23 NONAME ; int RTestServer::GetServerThreadId(class TThreadId &)
	?NotifyCommand@RTestExecution@@QAEHAAV?$TPckg@W4TCommand@@@@AAV?$TBuf8@$0DC@@@AAVTRequestStatus@@H@Z @ 24 NONAME ; int RTestExecution::NotifyCommand(class TPckg<enum TCommand> &, class TBuf8<50> &, class TRequestStatus &, int)
	?GetUiEnvProxy@CTestThreadContainer@@QAEPAVCUiEnvProxy@@XZ @ 25 NONAME ; class CUiEnvProxy * CTestThreadContainer::GetUiEnvProxy(void)
	?NewL@CTestThreadContainerRunner@@SAPAV1@VTThreadId@@PAVCActiveScheduler@@@Z @ 26 NONAME ; class CTestThreadContainerRunner * CTestThreadContainerRunner::NewL(class TThreadId, class CActiveScheduler *)
	?NewL@CTestThreadContainerRunnerFactory@@SAPAV1@VTThreadId@@PAVCActiveScheduler@@PAVCUiEnvProxy@@@Z @ 27 NONAME ; class CTestThreadContainerRunnerFactory * CTestThreadContainerRunnerFactory::NewL(class TThreadId, class CActiveScheduler *, class CUiEnvProxy *)
	?StartNewServer@@YAHABV?$TBuf@$0BAA@@@AAV1@HVRSemaphore@@HPAVCTestThreadContainerRunnerFactory@@@Z @ 28 NONAME ; int StartNewServer(class TBuf<256> const &, class TBuf<256> &, int, class RSemaphore, int, class CTestThreadContainerRunnerFactory *)
	?UITesting@CTestThreadContainer@@QAEHXZ @ 29 NONAME ; int CTestThreadContainer::UITesting(void)
	?NotifyCommand2@RTestExecution@@QAEHAAV?$TPckg@W4TCommand@@@@AAVTDes8@@AAVTRequestStatus@@H@Z @ 30 NONAME ; int RTestExecution::NotifyCommand2(class TPckg<enum TCommand> &, class TDes8 &, class TRequestStatus &, int)
	?RunTestCase@RTestExecution@@QAEXAAV?$TPckg@VTFullTestResult@@@@ABVTDesC16@@AAVTRequestStatus@@@Z @ 31 NONAME ; void RTestExecution::RunTestCase(class TPckg<class TFullTestResult> &, class TDesC16 const &, class TRequestStatus &)

