EXPORTS
	_ZN13CMemSpyEngine10GetVersionER8TVersion @ 1 NONAME
	_ZN13CMemSpyEngine10HelperEComEv @ 2 NONAME
	_ZN13CMemSpyEngine10HelperHeapEv @ 3 NONAME
	_ZN13CMemSpyEngine11HelperChunkEv @ 4 NONAME
	_ZN13CMemSpyEngine11HelperStackEv @ 5 NONAME
	_ZN13CMemSpyEngine11SetObserverEP21MMemSpyEngineObserver @ 6 NONAME
	_ZN13CMemSpyEngine12HelperFbServEv @ 7 NONAME
	_ZN13CMemSpyEngine12HelperServerEv @ 8 NONAME
	_ZN13CMemSpyEngine12HelperThreadEv @ 9 NONAME
	_ZN13CMemSpyEngine12InstallSinkLE15TMemSpySinkType @ 10 NONAME
	_ZN13CMemSpyEngine13HelperProcessEv @ 11 NONAME
	_ZN13CMemSpyEngine14ListOpenFilesLEv @ 12 NONAME
	_ZN13CMemSpyEngine16HelperFileSystemEv @ 13 NONAME
	_ZN13CMemSpyEngine17HelperCodeSegmentEv @ 14 NONAME
	_ZN13CMemSpyEngine18HelperActiveObjectEv @ 15 NONAME
	_ZN13CMemSpyEngine19HelperSysMemTrackerEv @ 16 NONAME
	_ZN13CMemSpyEngine22HelperKernelContainersEv @ 17 NONAME
	_ZN13CMemSpyEngine4NewLER3RFs @ 18 NONAME
	_ZN13CMemSpyEngine4SinkEv @ 19 NONAME
	_ZN13CMemSpyEngine8SinkTypeEv @ 20 NONAME
	_ZN13CMemSpyEngine9ContainerEv @ 21 NONAME
	_ZN13CMemSpyEngine9FsSessionEv @ 22 NONAME
	_ZN13CMemSpyEngine9HelperRAMEv @ 23 NONAME
	_ZN13CMemSpyEngine9HelperROMEv @ 24 NONAME
	_ZN13CMemSpyEngineD0Ev @ 25 NONAME
	_ZN13CMemSpyEngineD1Ev @ 26 NONAME
	_ZN13CMemSpyEngineD2Ev @ 27 NONAME
	_ZN13CMemSpyThread10TerminateLEv @ 28 NONAME
	_ZN13CMemSpyThread12SetPriorityLE15TThreadPriority @ 29 NONAME
	_ZN13CMemSpyThread14InfoContainerLEv @ 30 NONAME
	_ZN13CMemSpyThread41InfoContainerForceSyncronousConstructionLEv @ 31 NONAME
	_ZN13CMemSpyThread4OpenEv @ 32 NONAME
	_ZN13CMemSpyThread5CloseEv @ 33 NONAME
	_ZN13CMemSpyThread5KillLEv @ 34 NONAME
	_ZN13CMemSpyThread6PanicLEv @ 35 NONAME
	_ZN14CMemSpyProcess10TerminateLEv @ 36 NONAME
	_ZN14CMemSpyProcess4NewLERKS_ @ 37 NONAME
	_ZN14CMemSpyProcess4OpenEv @ 38 NONAME
	_ZN14CMemSpyProcess5CloseEv @ 39 NONAME
	_ZN14CMemSpyProcess5KillLEv @ 40 NONAME
	_ZN14CMemSpyProcess6PanicLEv @ 41 NONAME
	_ZN17MemSpyEngineUtils10GetFolderLER3RFsR6TDes16RK25CMemSpyEngineSinkMetaDataPK12TDriveNumber @ 42 NONAME
	_ZN17MemSpyEngineUtils11FormatTimeLER6TDes16RK5TTimei @ 43 NONAME
	_ZN17MemSpyEngineUtils11FormatTimeLER6TDes16RKxi @ 44 NONAME
	_ZN17MemSpyEngineUtils11GetRomInfoLER6TDes16S1_ @ 45 NONAME
	_ZN17MemSpyEngineUtils12IsRomAddressEPv @ 46 NONAME
	_ZN17MemSpyEngineUtils13CleanupTextLCERK7TDesC16 @ 47 NONAME
	_ZN17MemSpyEngineUtils14FormatSizeTextERKxii @ 48 NONAME
	_ZN17MemSpyEngineUtils14FormatSizeTextEi @ 49 NONAME
	_ZN17MemSpyEngineUtils16FormatPercentageEdd @ 50 NONAME
	_ZN17MemSpyEngineUtils17GetCapabilityNameER6TDes1611TCapability @ 51 NONAME
	_ZN17MemSpyEngineUtils20TextAfterDoubleColonER6TDes16 @ 52 NONAME
	_ZN17MemSpyEngineUtils21FormatSizeTextPreciseEi @ 53 NONAME
	_ZN17MemSpyEngineUtils21TextBeforeDoubleColonER6TDes16 @ 54 NONAME
	_ZN17MemSpyEngineUtils9FormatHexER6TDes16i @ 55 NONAME
	_ZN17MemSpyEngineUtils9StripTextER6TDes16RK7TDesC16 @ 56 NONAME
	_ZN19CMemSpyEngineObject4OpenEv @ 57 NONAME
	_ZN19CMemSpyEngineObject5CloseEv @ 58 NONAME
	_ZN19CMemSpyEngineObject9SetParentEPS_ @ 59 NONAME
	_ZN19CMemSpyEngineObjectC1ERS_ @ 60 NONAME
	_ZN19CMemSpyEngineObjectC1Ev @ 61 NONAME
	_ZN19CMemSpyEngineObjectC2ERS_ @ 62 NONAME
	_ZN19CMemSpyEngineObjectC2Ev @ 63 NONAME
	_ZN22CMemSpyEngineChunkList11SortByNameLEv @ 64 NONAME
	_ZN22CMemSpyEngineChunkList11SortBySizeLEv @ 65 NONAME
	_ZN22CMemSpyEngineChunkList18OutputDataColumnsLER13CMemSpyEngine @ 66 NONAME
	_ZN22CMemSpyEngineChunkList2AtEi @ 67 NONAME
	_ZN22CMemSpyEngineChunkListD0Ev @ 68 NONAME
	_ZN22CMemSpyEngineChunkListD1Ev @ 69 NONAME
	_ZN22CMemSpyEngineChunkListD2Ev @ 70 NONAME
	_ZN22CMemSpyEngineDriveList11SetObserverEP30MMemSpyEngineDriveListObserver @ 71 NONAME
	_ZN22CMemSpyEngineDriveList18EntryByDriveNumberE12TDriveNumber @ 72 NONAME
	_ZN22CMemSpyEngineDriveList2AtEi @ 73 NONAME
	_ZN22CMemSpyEngineDriveListD0Ev @ 74 NONAME
	_ZN22CMemSpyEngineDriveListD1Ev @ 75 NONAME
	_ZN22CMemSpyEngineDriveListD2Ev @ 76 NONAME
	_ZN22CMemSpyEngineHelperRAM22SetAknIconCacheStatusLEi @ 77 NONAME
	_ZN22CMemSpyEngineHelperROM8AddInfoLER23CMemSpyEngineOutputList @ 78 NONAME
	_ZN23CMemSpyEngineDriveEntry11SetObserverEP31MMemSpyEngineDriveEntryObserver @ 79 NONAME
	_ZN23CMemSpyEngineDriveEntryD0Ev @ 80 NONAME
	_ZN23CMemSpyEngineDriveEntryD1Ev @ 81 NONAME
	_ZN23CMemSpyEngineDriveEntryD2Ev @ 82 NONAME
	_ZN23CMemSpyEngineHelperECom2AtEi @ 83 NONAME
	_ZN23CMemSpyEngineHelperECom7IndexOfERK25CMemSpyEngineEComCategory @ 84 NONAME
	_ZN23CMemSpyEngineHelperHeap15OutputHeapInfoLERK15TMemSpyHeapInfoRK7TDesC16PK6RArrayI21TMemSpyDriverFreeCellE @ 85 NONAME
	_ZN23CMemSpyEngineHelperHeap16GetHeapInfoUserLERK10TProcessIdRK9TThreadIdR15TMemSpyHeapInfoP6RArrayI21TMemSpyDriverFreeCellE @ 86 NONAME
	_ZN23CMemSpyEngineHelperHeap16GetHeapInfoUserLERK14CMemSpyProcessR6RArrayI15TMemSpyHeapInfoE @ 87 NONAME
	_ZN23CMemSpyEngineHelperHeap18GetHeapInfoKernelLER15TMemSpyHeapInfoP6RArrayI21TMemSpyDriverFreeCellE @ 88 NONAME
	_ZN23CMemSpyEngineHelperHeap19OutputHeapDataUserLERK10TProcessIdRK9TThreadIdRK7TDesC16RK15TMemSpyHeapInfoPK6RArrayI21TMemSpyDriverFreeCellE @ 89 NONAME
	_ZN23CMemSpyEngineHelperHeap19OutputHeapDataUserLERK13CMemSpyThread @ 90 NONAME
	_ZN23CMemSpyEngineHelperHeap19OutputHeapInfoUserLERK13CMemSpyThread @ 91 NONAME
	_ZN23CMemSpyEngineHelperHeap21NewHeapSummaryShortLCERK15TMemSpyHeapInfo @ 92 NONAME
	_ZN23CMemSpyEngineHelperHeap21OutputHeapDataKernelLEv @ 93 NONAME
	_ZN23CMemSpyEngineHelperHeap21OutputHeapInfoKernelLEv @ 94 NONAME
	_ZN23CMemSpyEngineHelperHeap22OutputCellListingUserLERK13CMemSpyThread @ 95 NONAME
	_ZN23CMemSpyEngineHelperHeap24NewHeapSummaryExtendedLCERK15TMemSpyHeapInfoPK6RArrayI21TMemSpyDriverFreeCellE @ 96 NONAME
	_ZN23CMemSpyEngineHelperHeap24OutputHeapInfoForDeviceLEi @ 97 NONAME
	_ZN23CMemSpyEngineOutputSink10OutputRawLERK6TDesC8 @ 98 NONAME
	_ZN23CMemSpyEngineOutputSink11OutputLineLERK7TDesC16i @ 99 NONAME
	_ZN23CMemSpyEngineOutputSink16DataStreamBeginLERK7TDesC16 @ 100 NONAME
	_ZN23CMemSpyEngineOutputSink16DataStreamBeginLERK7TDesC16S2_ @ 101 NONAME
	_ZN23CMemSpyEngineOutputSink16OutputBlankLineLEv @ 102 NONAME
	_ZN23CMemSpyEngineOutputSink17OutputBinaryDataLERK7TDesC16PKhS4_i @ 103 NONAME
	_ZN23CMemSpyEngineOutputSink17OutputPrefixClearEv @ 104 NONAME
	_ZN23CMemSpyEngineOutputSink17OutputPrefixSetLCERK7TDesC16 @ 105 NONAME
	_ZN23CMemSpyEngineOutputSink19OutputItemAndValueLERK7TDesC16S2_ @ 106 NONAME
	_ZN23CMemSpyEngineOutputSink19OutputItemAndValueLERK7TDesC16ji @ 107 NONAME
	_ZN23CMemSpyEngineOutputSink20OutputLineFormattedLE11TRefByValueIK7TDesC16Ez @ 108 NONAME
	_ZN23CMemSpyEngineOutputSink21OutputSectionHeadingLERK7TDesC165TChar @ 109 NONAME
	_ZN23CMemSpyEngineOutputSink22DataStreamTimeStampEndEv @ 110 NONAME
	_ZN23CMemSpyEngineOutputSink25DataStreamTimeStampBeginLERK5TTime @ 111 NONAME
	_ZN23CMemSpyEngineOutputSink26OutputPrefixSetFormattedLCE11TRefByValueIK7TDesC16Ez @ 112 NONAME
	_ZN23CMemSpyEngineOutputSink27OutputBinaryDataCompressedLERK7TDesC16PKhS4_i @ 113 NONAME
	_ZN23CMemSpyEngineServerList11SortByNameLEv @ 114 NONAME
	_ZN23CMemSpyEngineServerList18OutputDataColumnsLER13CMemSpyEnginei @ 115 NONAME
	_ZN23CMemSpyEngineServerList19SortBySessionCountLEv @ 116 NONAME
	_ZN23CMemSpyEngineServerListD0Ev @ 117 NONAME
	_ZN23CMemSpyEngineServerListD1Ev @ 118 NONAME
	_ZN23CMemSpyEngineServerListD2Ev @ 119 NONAME
	_ZN23CMemSpyThreadInfoServer11SessionTypeE15TIpcSessionType @ 120 NONAME
	_ZN24CMemSpyEngineCodeSegList11SortByUidsLEv @ 121 NONAME
	_ZN24CMemSpyEngineCodeSegList15SortByCodeSizeLEv @ 122 NONAME
	_ZN24CMemSpyEngineCodeSegList15SortByDataSizeLEv @ 123 NONAME
	_ZN24CMemSpyEngineCodeSegList15SortByFileNameLEv @ 124 NONAME
	_ZN24CMemSpyEngineCodeSegList18OutputDataColumnsLER13CMemSpyEngine @ 125 NONAME
	_ZN24CMemSpyEngineCodeSegList30ShowOnlyEntriesWithGlobalDataLEv @ 126 NONAME
	_ZN24CMemSpyEngineHelperChunk14ListForThreadLE9TThreadId @ 127 NONAME
	_ZN24CMemSpyEngineHelperChunk15ListForProcessLE10TProcessId @ 128 NONAME
	_ZN24CMemSpyEngineHelperChunk25OutputChunkInfoForThreadLE9TThreadId @ 129 NONAME
	_ZN24CMemSpyEngineHelperChunk25OutputChunkInfoForThreadLE9TThreadIdR6TDes16 @ 130 NONAME
	_ZN24CMemSpyEngineHelperChunk25OutputChunkInfoForThreadLERK13CMemSpyThread @ 131 NONAME
	_ZN24CMemSpyEngineHelperChunk26OutputChunkInfoForProcessLE10TProcessId @ 132 NONAME
	_ZN24CMemSpyEngineHelperChunk26OutputChunkInfoForProcessLE10TProcessIdR6TDes16 @ 133 NONAME
	_ZN24CMemSpyEngineHelperChunk26OutputChunkInfoForProcessLERK14CMemSpyProcess @ 134 NONAME
	_ZN24CMemSpyEngineHelperChunk5ListLEv @ 135 NONAME
	_ZN24CMemSpyEngineHelperStack16OutputStackDataLERK13CMemSpyThread23TMemSpyDriverDomainType @ 136 NONAME
	_ZN24CMemSpyEngineHelperStack16OutputStackDataLERK13CMemSpyThread23TMemSpyDriverDomainTypei @ 137 NONAME
	_ZN24CMemSpyEngineHelperStack16OutputStackInfoLE10TProcessId9TThreadIdR6TDes16 @ 138 NONAME
	_ZN24CMemSpyEngineHelperStack16OutputStackInfoLERK13CMemSpyThread @ 139 NONAME
	_ZN24CMemSpyEngineHelperStack19CalculateStackSizesERK14CMemSpyProcess @ 140 NONAME
	_ZN24CMemSpyEngineHelperStack25OutputStackInfoForDeviceLEv @ 141 NONAME
	_ZN24CMemSpyEngineServerEntryD0Ev @ 142 NONAME
	_ZN24CMemSpyEngineServerEntryD1Ev @ 143 NONAME
	_ZN24CMemSpyEngineServerEntryD2Ev @ 144 NONAME
	_ZN25CMemSpyEngineActiveObjectD0Ev @ 145 NONAME
	_ZN25CMemSpyEngineActiveObjectD1Ev @ 146 NONAME
	_ZN25CMemSpyEngineActiveObjectD2Ev @ 147 NONAME
	_ZN25CMemSpyEngineCodeSegEntryD0Ev @ 148 NONAME
	_ZN25CMemSpyEngineCodeSegEntryD1Ev @ 149 NONAME
	_ZN25CMemSpyEngineCodeSegEntryD2Ev @ 150 NONAME
	_ZN25CMemSpyEngineEComCategory2AtEi @ 151 NONAME
	_ZN25CMemSpyEngineEComCategory7IndexOfERK26CMemSpyEngineEComInterface @ 152 NONAME
	_ZN25CMemSpyEngineFbServBitmap18OutputDataColumnsLER13CMemSpyEngine @ 153 NONAME
	_ZN25CMemSpyEngineFbServBitmap5NewLCEi @ 154 NONAME
	_ZN25CMemSpyEngineFbServBitmap6BitmapEv @ 155 NONAME
	_ZN25CMemSpyEngineFbServBitmapD0Ev @ 156 NONAME
	_ZN25CMemSpyEngineFbServBitmapD1Ev @ 157 NONAME
	_ZN25CMemSpyEngineFbServBitmapD2Ev @ 158 NONAME
	_ZN25CMemSpyEngineHelperFbServ24GetArrayOfBitmapHandlesLER6RArrayIiE @ 159 NONAME
	_ZN25CMemSpyEngineHelperServer11ServerListLEv @ 160 NONAME
	_ZN25CMemSpyEngineHelperServer14GetServerListLER6RArrayI30TMemSpyDriverHandleInfoGenericE @ 161 NONAME
	_ZN25CMemSpyEngineHelperServer18GetServerSessionsLEPvR6RArrayI30TMemSpyDriverServerSessionInfoE @ 162 NONAME
	_ZN25CMemSpyEngineHelperServer18GetServerSessionsLERK30TMemSpyDriverHandleInfoGenericR6RArrayI30TMemSpyDriverServerSessionInfoE @ 163 NONAME
	_ZN25CMemSpyEngineHelperThread17OutputThreadInfoLERK13CMemSpyThreadi @ 164 NONAME
	_ZN25CMemSpyEngineOpenFileListD0Ev @ 165 NONAME
	_ZN25CMemSpyEngineOpenFileListD1Ev @ 166 NONAME
	_ZN25CMemSpyEngineOpenFileListD2Ev @ 167 NONAME
	_ZN25CMemSpyEngineSinkMetaData4NewLERK7TDesC16S2_S2_ii @ 168 NONAME
	_ZN25CMemSpyEngineSinkMetaData4NewLERK7TDesC16S2_S2_iiRK5TTime @ 169 NONAME
	_ZN25CMemSpyEngineSinkMetaData4NewLEv @ 170 NONAME
	_ZN25CMemSpyEngineSinkMetaDataD0Ev @ 171 NONAME
	_ZN25CMemSpyEngineSinkMetaDataD1Ev @ 172 NONAME
	_ZN25CMemSpyEngineSinkMetaDataD2Ev @ 173 NONAME
	_ZN25CMemSpyThreadInfoItemBase6PrintLEv @ 174 NONAME
	_ZN25CMemSpyThreadInfoItemBase8RebuildLEv @ 175 NONAME
	_ZN26CMemSpyEngineEComInterface2AtEi @ 176 NONAME
	_ZN26CMemSpyEngineEComInterface7IndexOfERK31CMemSpyEngineEComImplementation @ 177 NONAME
	_ZN26CMemSpyEngineHelperProcess12ImpersonateLEm @ 178 NONAME
	_ZN26CMemSpyEngineHelperProcess18OutputProcessInfoLERK14CMemSpyProcess @ 179 NONAME
	_ZN26CMemSpyEngineHelperProcess26OutputProcessInfoDetailedLERK14CMemSpyProcess @ 180 NONAME
	_ZN26CMemSpyEngineHelperProcess38SetMemoryTrackingAutoStartProcessListLERK6RArrayI4TUidE @ 181 NONAME
	_ZN26CMemSpyThreadInfoContainer12ObserverAddLER34MMemSpyThreadInfoContainerObserver @ 182 NONAME
	_ZN26CMemSpyThreadInfoContainer14ObserverRemoveER34MMemSpyThreadInfoContainerObserver @ 183 NONAME
	_ZN26CMemSpyThreadInfoContainer19InfoItemIndexByTypeE25TMemSpyThreadInfoItemType @ 184 NONAME
	_ZN26CMemSpyThreadInfoContainer4ItemE25TMemSpyThreadInfoItemType @ 185 NONAME
	_ZN26CMemSpyThreadInfoContainer4ItemEi @ 186 NONAME
	_ZN26CMemSpyThreadInfoContainer4OpenEv @ 187 NONAME
	_ZN26CMemSpyThreadInfoContainer5CloseEv @ 188 NONAME
	_ZN26CMemSpyThreadInfoContainer6PrintLEv @ 189 NONAME
	_ZN27CMemSpyDeviceWideOperations4NewLER13CMemSpyEngineR35MMemSpyDeviceWideOperationsObserverNS_10TOperationE @ 190 NONAME
	_ZN27CMemSpyDeviceWideOperations6CancelEv @ 191 NONAME
	_ZN27CMemSpyDeviceWideOperationsD0Ev @ 192 NONAME
	_ZN27CMemSpyDeviceWideOperationsD1Ev @ 193 NONAME
	_ZN27CMemSpyDeviceWideOperationsD2Ev @ 194 NONAME
	_ZN28CMemSpyEngineObjectContainer10SortByNameEv @ 195 NONAME
	_ZN28CMemSpyEngineObjectContainer14SortByCodeSegsEv @ 196 NONAME
	_ZN28CMemSpyEngineObjectContainer15SortByHeapUsageEv @ 197 NONAME
	_ZN28CMemSpyEngineObjectContainer16SortByStackUsageEv @ 198 NONAME
	_ZN28CMemSpyEngineObjectContainer17SortByThreadCountEv @ 199 NONAME
	_ZN28CMemSpyEngineObjectContainer8RefreshLERK7TDesC16 @ 200 NONAME
	_ZN28CMemSpyEngineObjectContainer8RefreshLEv @ 201 NONAME
	_ZN28CMemSpyEngineObjectContainer8SortByIdEv @ 202 NONAME
	_ZN29CMemSpyEngineHelperFileSystem10DriveListLEv @ 203 NONAME
	_ZN29CMemSpyEngineHelperFileSystem14GetSystemDriveEv @ 204 NONAME
	_ZN29CMemSpyEngineHelperFileSystem14ListOpenFilesLERK9TThreadId @ 205 NONAME
	_ZN29CMemSpyEngineHelperFileSystem14ListOpenFilesLEv @ 206 NONAME
	_ZN30CMemSpyEngineActiveObjectArray16ObjectByAddressLEPv @ 207 NONAME
	_ZN30CMemSpyEngineActiveObjectArray18OutputDataColumnsLER13CMemSpyEngine @ 208 NONAME
	_ZN30CMemSpyEngineActiveObjectArray2AtEi @ 209 NONAME
	_ZN30CMemSpyEngineActiveObjectArrayD0Ev @ 210 NONAME
	_ZN30CMemSpyEngineActiveObjectArrayD1Ev @ 211 NONAME
	_ZN30CMemSpyEngineActiveObjectArrayD2Ev @ 212 NONAME
	_ZN30CMemSpyEngineFbServBitmapArray15BitmapByHandleLEi @ 213 NONAME
	_ZN30CMemSpyEngineFbServBitmapArray2AtEi @ 214 NONAME
	_ZN30CMemSpyEngineFbServBitmapArray4NewLERK6RArrayIiE @ 215 NONAME
	_ZN30CMemSpyEngineFbServBitmapArray4NewLEiRK6RArrayIiER38MMemSpyEngineFbSerbBitmapArrayObserveri @ 216 NONAME
	_ZN30CMemSpyEngineFbServBitmapArrayD0Ev @ 217 NONAME
	_ZN30CMemSpyEngineFbServBitmapArrayD1Ev @ 218 NONAME
	_ZN30CMemSpyEngineFbServBitmapArrayD2Ev @ 219 NONAME
	_ZN30CMemSpyEngineHelperCodeSegment16CodeSegmentListLE10TProcessId @ 220 NONAME
	_ZN30CMemSpyEngineHelperCodeSegment16CodeSegmentListLEv @ 221 NONAME
	_ZN30CMemSpyEngineHelperCodeSegment19OutputCodeSegmentsLEjR6TDes16RK7TDesC165TChari @ 222 NONAME
	_ZN31CMemSpyEngineHelperActiveObject17ActiveObjectListLERK13CMemSpyThread @ 223 NONAME
	_ZN31CMemSpyThreadInfoMemoryTracking11InfoCurrentEv @ 224 NONAME
	_ZN31CMemSpyThreadInfoMemoryTracking13TrackingStopLEv @ 225 NONAME
	_ZN31CMemSpyThreadInfoMemoryTracking14TrackingStartLEv @ 226 NONAME
	_ZN31CMemSpyThreadInfoMemoryTracking17TrackingResetHWMLEv @ 227 NONAME
	_ZN31CMemSpyThreadInfoMemoryTracking20TrackingObserverAddLER41MMemSpyEngineProcessMemoryTrackerObserver @ 228 NONAME
	_ZN31CMemSpyThreadInfoMemoryTracking22TrackingObserverRemoveER41MMemSpyEngineProcessMemoryTrackerObserver @ 229 NONAME
	_ZN31CMemSpyThreadInfoMemoryTracking37TrackingSetTotalIncludesSharedMemoryLEi @ 230 NONAME
	_ZN31CMemSpyThreadInfoMemoryTracking7InfoHWMEv @ 231 NONAME
	_ZN31CMemSpyThreadInfoMemoryTracking8InfoPeakEv @ 232 NONAME
	_ZN32CMemSpyEngineHelperSysMemTracker10SetConfigLERK38TMemSpyEngineHelperSysMemTrackerConfig @ 233 NONAME
	_ZN32CMemSpyEngineHelperSysMemTracker11SetObserverEP40MMemSpyEngineHelperSysMemTrackerObserver @ 234 NONAME
	_ZN32CMemSpyEngineHelperSysMemTracker14RemoveObserverEP40MMemSpyEngineHelperSysMemTrackerObserver @ 235 NONAME
	_ZN32CMemSpyEngineHelperSysMemTracker5StopLEv @ 236 NONAME
	_ZN32CMemSpyEngineHelperSysMemTracker6StartLERK38TMemSpyEngineHelperSysMemTrackerConfig @ 237 NONAME
	_ZN32CMemSpyEngineHelperSysMemTracker6StartLEv @ 238 NONAME
	_ZN32CMemSpyEngineHelperSysMemTracker9GetConfigER38TMemSpyEngineHelperSysMemTrackerConfig @ 239 NONAME
	_ZN33CMemSpyEngineProcessMemoryTracker12AddObserverLER41MMemSpyEngineProcessMemoryTrackerObserver @ 240 NONAME
	_ZN33CMemSpyEngineProcessMemoryTracker14RemoveObserverER41MMemSpyEngineProcessMemoryTrackerObserver @ 241 NONAME
	_ZN33CMemSpyEngineProcessMemoryTracker4StopEv @ 242 NONAME
	_ZN33CMemSpyEngineProcessMemoryTracker6StartLEv @ 243 NONAME
	_ZN33CMemSpyEngineProcessMemoryTracker9ResetHWMLEv @ 244 NONAME
	_ZN35CMemSpyEngineHelperKernelContainers11ObjectsAllLEv @ 245 NONAME
	_ZN35CMemSpyEngineHelperKernelContainers28ObjectsForSpecificContainerLE26TMemSpyDriverContainerType @ 246 NONAME
	_ZN36CMemSpyEngineGenericKernelObjectList12TypeAsStringE26TMemSpyDriverContainerType @ 247 NONAME
	_ZN36CMemSpyEngineGenericKernelObjectListD0Ev @ 248 NONAME
	_ZN36CMemSpyEngineGenericKernelObjectListD1Ev @ 249 NONAME
	_ZN36CMemSpyEngineGenericKernelObjectListD2Ev @ 250 NONAME
	_ZN41CMemSpyEngineGenericKernelObjectContainerD0Ev @ 251 NONAME
	_ZN41CMemSpyEngineGenericKernelObjectContainerD1Ev @ 252 NONAME
	_ZN41CMemSpyEngineGenericKernelObjectContainerD2Ev @ 253 NONAME
	_ZNK13CMemSpyEngine9ContainerEv @ 254 NONAME
	_ZNK13CMemSpyThread16IsSystemCriticalEv @ 255 NONAME
	_ZNK13CMemSpyThread17IsSystemPermanentEv @ 256 NONAME
	_ZNK13CMemSpyThread4NameEv @ 257 NONAME
	_ZNK13CMemSpyThread6IsDeadEv @ 258 NONAME
	_ZNK13CMemSpyThread8FullNameEv @ 259 NONAME
	_ZNK14CMemSpyProcess11ThreadByIdLE9TThreadId @ 260 NONAME
	_ZNK14CMemSpyProcess15ThreadIndexByIdE9TThreadId @ 261 NONAME
	_ZNK14CMemSpyProcess16IsSystemCriticalEv @ 262 NONAME
	_ZNK14CMemSpyProcess17IsSystemPermanentEv @ 263 NONAME
	_ZNK14CMemSpyProcess2AtEi @ 264 NONAME
	_ZNK14CMemSpyProcess3SIDEv @ 265 NONAME
	_ZNK14CMemSpyProcess3VIDEv @ 266 NONAME
	_ZNK14CMemSpyProcess4NameEv @ 267 NONAME
	_ZNK14CMemSpyProcess6IsDeadEv @ 268 NONAME
	_ZNK14CMemSpyProcess9MdcaCountEv @ 269 NONAME
	_ZNK14CMemSpyProcess9MdcaPointEi @ 270 NONAME
	_ZNK19CMemSpyEngineObject11AccessCountEv @ 271 NONAME
	_ZNK19CMemSpyEngineObject6ParentEv @ 272 NONAME
	_ZNK20CMemSpyThreadInfoLDD4NameEv @ 273 NONAME
	_ZNK20CMemSpyThreadInfoPDD4NameEv @ 274 NONAME
	_ZNK21CMemSpyThreadInfoHeap4NameEv @ 275 NONAME
	_ZNK22CMemSpyEngineChunkList11EntryExistsEPv @ 276 NONAME
	_ZNK22CMemSpyEngineChunkList2AtEi @ 277 NONAME
	_ZNK22CMemSpyEngineChunkList5CountEv @ 278 NONAME
	_ZNK22CMemSpyEngineChunkList9ItemIndexERK23CMemSpyEngineChunkEntry @ 279 NONAME
	_ZNK22CMemSpyEngineChunkList9MdcaCountEv @ 280 NONAME
	_ZNK22CMemSpyEngineChunkList9MdcaPointEi @ 281 NONAME
	_ZNK22CMemSpyEngineDriveList2AtEi @ 282 NONAME
	_ZNK22CMemSpyEngineDriveList5CountEv @ 283 NONAME
	_ZNK22CMemSpyEngineDriveList9ItemIndexERK23CMemSpyEngineDriveEntry @ 284 NONAME
	_ZNK22CMemSpyEngineDriveList9MdcaCountEv @ 285 NONAME
	_ZNK22CMemSpyEngineDriveList9MdcaPointEi @ 286 NONAME
	_ZNK22CMemSpyEngineHelperRAM26IsAknIconCacheConfigurableEv @ 287 NONAME
	_ZNK22CMemSpyThreadInfoChunk4NameEv @ 288 NONAME
	_ZNK22CMemSpyThreadInfoChunk9MdcaCountEv @ 289 NONAME
	_ZNK22CMemSpyThreadInfoChunk9MdcaPointEi @ 290 NONAME
	_ZNK22CMemSpyThreadInfoMutex4NameEv @ 291 NONAME
	_ZNK22CMemSpyThreadInfoStack4NameEv @ 292 NONAME
	_ZNK22CMemSpyThreadInfoTimer4NameEv @ 293 NONAME
	_ZNK23CMemSpyEngineChunkEntry11OutputDataLER24CMemSpyEngineHelperChunk @ 294 NONAME
	_ZNK23CMemSpyEngineChunkEntry15AppendOwnerNameER6TDes16 @ 295 NONAME
	_ZNK23CMemSpyEngineChunkEntry9MdcaCountEv @ 296 NONAME
	_ZNK23CMemSpyEngineChunkEntry9MdcaPointEi @ 297 NONAME
	_ZNK23CMemSpyEngineChunkEntry9OwnerNameER6TDes16 @ 298 NONAME
	_ZNK23CMemSpyEngineDriveEntry9MdcaCountEv @ 299 NONAME
	_ZNK23CMemSpyEngineDriveEntry9MdcaPointEi @ 300 NONAME
	_ZNK23CMemSpyEngineHelperECom9MdcaCountEv @ 301 NONAME
	_ZNK23CMemSpyEngineHelperECom9MdcaPointEi @ 302 NONAME
	_ZNK23CMemSpyEngineServerList2AtEi @ 303 NONAME
	_ZNK23CMemSpyEngineServerList5CountEv @ 304 NONAME
	_ZNK23CMemSpyEngineServerList9ItemIndexERK24CMemSpyEngineServerEntry @ 305 NONAME
	_ZNK23CMemSpyEngineServerList9MdcaCountEv @ 306 NONAME
	_ZNK23CMemSpyEngineServerList9MdcaPointEi @ 307 NONAME
	_ZNK23CMemSpyThreadInfoServer4NameEv @ 308 NONAME
	_ZNK24CMemSpyEngineCodeSegList13IndexByHandleEPv @ 309 NONAME
	_ZNK24CMemSpyEngineCodeSegList9MdcaCountEv @ 310 NONAME
	_ZNK24CMemSpyEngineCodeSegList9MdcaPointEi @ 311 NONAME
	_ZNK24CMemSpyEngineServerEntry11OutputDataLER25CMemSpyEngineHelperServeri @ 312 NONAME
	_ZNK24CMemSpyEngineServerEntry12GetSessionsLER25CMemSpyEngineHelperServerR6RArrayI30TMemSpyDriverServerSessionInfoE @ 313 NONAME
	_ZNK24CMemSpyThreadInfoCodeSeg4NameEv @ 314 NONAME
	_ZNK24CMemSpyThreadInfoCodeSeg9MdcaCountEv @ 315 NONAME
	_ZNK24CMemSpyThreadInfoCodeSeg9MdcaPointEi @ 316 NONAME
	_ZNK24CMemSpyThreadInfoGeneral4NameEv @ 317 NONAME
	_ZNK24CMemSpyThreadInfoSession15ConnectionCountERK7TDesC16 @ 318 NONAME
	_ZNK24CMemSpyThreadInfoSession4NameEv @ 319 NONAME
	_ZNK25CMemSpyEngineActiveObject11OutputDataLER13CMemSpyEngine @ 320 NONAME
	_ZNK25CMemSpyEngineActiveObject16RequestIsPendingEv @ 321 NONAME
	_ZNK25CMemSpyEngineActiveObject18IsAddedToSchedulerEv @ 322 NONAME
	_ZNK25CMemSpyEngineActiveObject8IsActiveEv @ 323 NONAME
	_ZNK25CMemSpyEngineCodeSegEntry11OutputDataLER30CMemSpyEngineHelperCodeSegment @ 324 NONAME
	_ZNK25CMemSpyEngineCodeSegEntry13HasCapabilityE11TCapability @ 325 NONAME
	_ZNK25CMemSpyEngineEComCategory9MdcaCountEv @ 326 NONAME
	_ZNK25CMemSpyEngineEComCategory9MdcaPointEi @ 327 NONAME
	_ZNK25CMemSpyEngineFbServBitmap11OutputDataLER13CMemSpyEngine @ 328 NONAME
	_ZNK25CMemSpyEngineFbServBitmap22GetExportableFileNameLER6TDes16 @ 329 NONAME
	_ZNK25CMemSpyEngineFbServBitmap6BitmapEv @ 330 NONAME
	_ZNK25CMemSpyEngineFbServBitmap6HandleEv @ 331 NONAME
	_ZNK25CMemSpyEngineFbServBitmap7CaptionEv @ 332 NONAME
	_ZNK25CMemSpyEngineOpenFileList2AtEi @ 333 NONAME
	_ZNK25CMemSpyEngineOpenFileList5CountEv @ 334 NONAME
	_ZNK25CMemSpyThreadInfoItemBase4TypeEv @ 335 NONAME
	_ZNK25CMemSpyThreadInfoItemBase6EngineEv @ 336 NONAME
	_ZNK25CMemSpyThreadInfoItemBase7IsReadyEv @ 337 NONAME
	_ZNK25CMemSpyThreadInfoItemBase9MdcaCountEv @ 338 NONAME
	_ZNK25CMemSpyThreadInfoItemBase9MdcaPointEi @ 339 NONAME
	_ZNK26CMemSpyEngineEComInterface9MdcaCountEv @ 340 NONAME
	_ZNK26CMemSpyEngineEComInterface9MdcaPointEi @ 341 NONAME
	_ZNK26CMemSpyThreadInfoContainer6EngineEv @ 342 NONAME
	_ZNK26CMemSpyThreadInfoContainer9MdcaCountEv @ 343 NONAME
	_ZNK26CMemSpyThreadInfoContainer9MdcaPointEi @ 344 NONAME
	_ZNK26CMemSpyThreadInfoOpenFiles4NameEv @ 345 NONAME
	_ZNK26CMemSpyThreadInfoSemaphore4NameEv @ 346 NONAME
	_ZNK27CMemSpyDeviceWideOperations18TotalOperationSizeEv @ 347 NONAME
	_ZNK27CMemSpyThreadInfoUndertaker4NameEv @ 348 NONAME
	_ZNK28CMemSpyEngineObjectContainer12ProcessByIdLE10TProcessId @ 349 NONAME
	_ZNK28CMemSpyEngineObjectContainer16ProcessIndexByIdE10TProcessId @ 350 NONAME
	_ZNK28CMemSpyEngineObjectContainer26ProcessAndThreadByFullNameERK7TDesC16RP14CMemSpyProcessRP13CMemSpyThread @ 351 NONAME
	_ZNK28CMemSpyEngineObjectContainer26ProcessAndThreadByThreadIdE9TThreadIdRP14CMemSpyProcessRP13CMemSpyThread @ 352 NONAME
	_ZNK28CMemSpyEngineObjectContainer29ProcessAndThreadByPartialNameERK7TDesC16RP14CMemSpyProcessRP13CMemSpyThread @ 353 NONAME
	_ZNK28CMemSpyEngineObjectContainer2AtEi @ 354 NONAME
	_ZNK28CMemSpyEngineObjectContainer5CountEv @ 355 NONAME
	_ZNK28CMemSpyEngineObjectContainer7IsAliveE10TProcessId @ 356 NONAME
	_ZNK28CMemSpyEngineObjectContainer7IsAliveE10TProcessId9TThreadId @ 357 NONAME
	_ZNK28CMemSpyEngineObjectContainer8CountAllEv @ 358 NONAME
	_ZNK28CMemSpyEngineObjectContainer9MdcaCountEv @ 359 NONAME
	_ZNK28CMemSpyEngineObjectContainer9MdcaPointEi @ 360 NONAME
	_ZNK29CMemSpyThreadInfoOtherThreads4NameEv @ 361 NONAME
	_ZNK30CMemSpyEngineActiveObjectArray20ObjectIndexByAddressEPv @ 362 NONAME
	_ZNK30CMemSpyEngineActiveObjectArray2AtEi @ 363 NONAME
	_ZNK30CMemSpyEngineActiveObjectArray5CountEv @ 364 NONAME
	_ZNK30CMemSpyEngineActiveObjectArray9MdcaCountEv @ 365 NONAME
	_ZNK30CMemSpyEngineActiveObjectArray9MdcaPointEi @ 366 NONAME
	_ZNK30CMemSpyEngineFbServBitmapArray19BitmapIndexByHandleEi @ 367 NONAME
	_ZNK30CMemSpyEngineFbServBitmapArray2AtEi @ 368 NONAME
	_ZNK30CMemSpyEngineFbServBitmapArray5CountEv @ 369 NONAME
	_ZNK30CMemSpyEngineFbServBitmapArray9MdcaCountEv @ 370 NONAME
	_ZNK30CMemSpyEngineFbServBitmapArray9MdcaPointEi @ 371 NONAME
	_ZNK30CMemSpyEngineOpenFileListEntry4SizeEv @ 372 NONAME
	_ZNK30CMemSpyEngineOpenFileListEntry8FileNameEv @ 373 NONAME
	_ZNK30CMemSpyThreadInfoActiveObjects4NameEv @ 374 NONAME
	_ZNK30CMemSpyThreadInfoActiveObjects9MdcaCountEv @ 375 NONAME
	_ZNK30CMemSpyThreadInfoActiveObjects9MdcaPointEi @ 376 NONAME
	_ZNK31CMemSpyEngineEComImplementation9MdcaCountEv @ 377 NONAME
	_ZNK31CMemSpyEngineEComImplementation9MdcaPointEi @ 378 NONAME
	_ZNK31CMemSpyThreadInfoChangeNotifier4NameEv @ 379 NONAME
	_ZNK31CMemSpyThreadInfoLogicalChannel4NameEv @ 380 NONAME
	_ZNK31CMemSpyThreadInfoMemoryTracking14TrackingActiveEv @ 381 NONAME
	_ZNK31CMemSpyThreadInfoMemoryTracking25TotalIncludesSharedMemoryEv @ 382 NONAME
	_ZNK31CMemSpyThreadInfoMemoryTracking4NameEv @ 383 NONAME
	_ZNK31CMemSpyThreadInfoOtherProcesses4NameEv @ 384 NONAME
	_ZNK32CMemSpyEngineHelperSysMemTracker15CompletedCyclesEv @ 385 NONAME
	_ZNK32CMemSpyEngineHelperSysMemTracker8IsActiveEv @ 386 NONAME
	_ZNK32CMemSpyEngineHelperSysMemTracker9MdcaCountEv @ 387 NONAME
	_ZNK32CMemSpyEngineHelperSysMemTracker9MdcaPointEi @ 388 NONAME
	_ZNK33CMemSpyEngineProcessMemoryTracker10AmTrackingEv @ 389 NONAME
	_ZNK33CMemSpyThreadInfoHandleObjectBase19DetailsIndexByEntryERK30TMemSpyDriverHandleInfoGeneric @ 390 NONAME
	_ZNK33CMemSpyThreadInfoHandleObjectBase20DetailsIndexByHandleEPv @ 391 NONAME
	_ZNK34CMemSpyEngineOpenFileListForThread10ThreadNameEv @ 392 NONAME
	_ZNK34CMemSpyEngineOpenFileListForThread2AtEi @ 393 NONAME
	_ZNK34CMemSpyEngineOpenFileListForThread5CountEv @ 394 NONAME
	_ZNK34CMemSpyEngineOpenFileListForThread8ThreadIdEv @ 395 NONAME
	_ZNK34CMemSpyEngineOpenFileListForThread9ProcessIdEv @ 396 NONAME
	_ZNK35CMemSpyEngineHelperKernelContainers7OutputLERK41CMemSpyEngineGenericKernelObjectContainer @ 397 NONAME
	_ZNK35CMemSpyThreadInfoOwnedThreadHandles4NameEv @ 398 NONAME
	_ZNK36CMemSpyEngineGenericKernelObjectList2AtEi @ 399 NONAME
	_ZNK36CMemSpyEngineGenericKernelObjectList4NameEv @ 400 NONAME
	_ZNK36CMemSpyEngineGenericKernelObjectList4TypeEv @ 401 NONAME
	_ZNK36CMemSpyEngineGenericKernelObjectList5CountEv @ 402 NONAME
	_ZNK36CMemSpyEngineGenericKernelObjectList7OutputLER23CMemSpyEngineOutputSink @ 403 NONAME
	_ZNK36CMemSpyThreadInfoOwnedProcessHandles4NameEv @ 404 NONAME
	_ZNK37CMemSpyEngineHelperSysMemTrackerCycle10MemoryFreeEv @ 405 NONAME
	_ZNK37CMemSpyEngineHelperSysMemTrackerCycle11ChangeCountEv @ 406 NONAME
	_ZNK37CMemSpyEngineHelperSysMemTrackerCycle11CycleNumberEv @ 407 NONAME
	_ZNK37CMemSpyEngineHelperSysMemTrackerCycle11MemoryDeltaEv @ 408 NONAME
	_ZNK37CMemSpyEngineHelperSysMemTrackerCycle13TimeFormattedEv @ 409 NONAME
	_ZNK37CMemSpyEngineHelperSysMemTrackerCycle23MemoryFreePreviousCycleEv @ 410 NONAME
	_ZNK37CMemSpyEngineHelperSysMemTrackerCycle4TimeEv @ 411 NONAME
	_ZNK37CMemSpyEngineHelperSysMemTrackerCycle7CaptionEv @ 412 NONAME
	_ZNK37CMemSpyEngineHelperSysMemTrackerCycle9MdcaCountEv @ 413 NONAME
	_ZNK37CMemSpyEngineHelperSysMemTrackerCycle9MdcaPointEi @ 414 NONAME
	_ZNK41CMemSpyEngineGenericKernelObjectContainer2AtEi @ 415 NONAME
	_ZNK41CMemSpyEngineGenericKernelObjectContainer5CountEv @ 416 NONAME
	_ZNK41CMemSpyEngineGenericKernelObjectContainer7OutputLER23CMemSpyEngineOutputSink @ 417 NONAME
	_ZNK41CMemSpyEngineGenericKernelObjectContainer9MdcaCountEv @ 418 NONAME
	_ZNK41CMemSpyEngineGenericKernelObjectContainer9MdcaPointEi @ 419 NONAME
	_ZTI23CMemSpyEngineDriveEntry @ 420 NONAME ; #<TI>#
	_ZTI41CMemSpyEngineHelperSysMemTrackerEntryCode @ 421 NONAME ; #<TI>#
	_ZTI41CMemSpyEngineHelperSysMemTrackerEntryHeap @ 422 NONAME ; #<TI>#
	_ZTI42CMemSpyEngineHelperSysMemTrackerEntryChunk @ 423 NONAME ; #<TI>#
	_ZTI42CMemSpyEngineHelperSysMemTrackerEntryStack @ 424 NONAME ; #<TI>#
	_ZTI42CMemSpyEngineHelperSysMemTrackerGlobalData @ 425 NONAME ; #<TI>#
	_ZTI43CMemSpyEngineHelperSysMemTrackerEntryBitmap @ 426 NONAME ; #<TI>#
	_ZTI43CMemSpyEngineHelperSysMemTrackerEntryFbserv @ 427 NONAME ; #<TI>#
	_ZTI45CMemSpyEngineHelperSysMemTrackerEntryOpenFile @ 428 NONAME ; #<TI>#
	_ZTI45CMemSpyEngineHelperSysMemTrackerEntryRamDrive @ 429 NONAME ; #<TI>#
	_ZTI46CMemSpyEngineHelperSysMemTrackerEntryDiskSpace @ 430 NONAME ; #<TI>#
	_ZTI48CMemSpyEngineHelperSysMemTrackerEntryHandlePAndS @ 431 NONAME ; #<TI>#
	_ZTI50CMemSpyEngineHelperSysMemTrackerEntryHandleGeneric @ 432 NONAME ; #<TI>#
	_ZTI52CMemSpyEngineHelperSysMemTrackerEntryFileServerCache @ 433 NONAME ; #<TI>#
	_ZTIN25CMemSpyThreadInfoItemBase5CItemE @ 434 NONAME ABSENT ; #<TI>#
	_ZTV23CMemSpyEngineDriveEntry @ 435 NONAME ; #<VT>#
	_ZTV41CMemSpyEngineHelperSysMemTrackerEntryCode @ 436 NONAME ; #<VT>#
	_ZTV41CMemSpyEngineHelperSysMemTrackerEntryHeap @ 437 NONAME ; #<VT>#
	_ZTV42CMemSpyEngineHelperSysMemTrackerEntryChunk @ 438 NONAME ; #<VT>#
	_ZTV42CMemSpyEngineHelperSysMemTrackerEntryStack @ 439 NONAME ; #<VT>#
	_ZTV42CMemSpyEngineHelperSysMemTrackerGlobalData @ 440 NONAME ; #<VT>#
	_ZTV43CMemSpyEngineHelperSysMemTrackerEntryBitmap @ 441 NONAME ; #<VT>#
	_ZTV43CMemSpyEngineHelperSysMemTrackerEntryFbserv @ 442 NONAME ; #<VT>#
	_ZTV45CMemSpyEngineHelperSysMemTrackerEntryOpenFile @ 443 NONAME ; #<VT>#
	_ZTV45CMemSpyEngineHelperSysMemTrackerEntryRamDrive @ 444 NONAME ; #<VT>#
	_ZTV46CMemSpyEngineHelperSysMemTrackerEntryDiskSpace @ 445 NONAME ; #<VT>#
	_ZTV48CMemSpyEngineHelperSysMemTrackerEntryHandlePAndS @ 446 NONAME ; #<VT>#
	_ZTV50CMemSpyEngineHelperSysMemTrackerEntryHandleGeneric @ 447 NONAME ; #<VT>#
	_ZTV52CMemSpyEngineHelperSysMemTrackerEntryFileServerCache @ 448 NONAME ; #<VT>#
	_ZTVN25CMemSpyThreadInfoItemBase5CItemE @ 449 NONAME ABSENT ; #<VT>#
	_ZThn16_NK14CMemSpyProcess9MdcaCountEv @ 450 NONAME ; #<thunk>#
	_ZThn16_NK14CMemSpyProcess9MdcaPointEi @ 451 NONAME ; #<thunk>#
	_ZThn16_NK22CMemSpyThreadInfoChunk9MdcaCountEv @ 452 NONAME ; #<thunk>#
	_ZThn16_NK22CMemSpyThreadInfoChunk9MdcaPointEi @ 453 NONAME ; #<thunk>#
	_ZThn16_NK24CMemSpyThreadInfoCodeSeg9MdcaCountEv @ 454 NONAME ; #<thunk>#
	_ZThn16_NK24CMemSpyThreadInfoCodeSeg9MdcaPointEi @ 455 NONAME ; #<thunk>#
	_ZThn16_NK25CMemSpyThreadInfoItemBase9MdcaCountEv @ 456 NONAME ; #<thunk>#
	_ZThn16_NK25CMemSpyThreadInfoItemBase9MdcaPointEi @ 457 NONAME ; #<thunk>#
	_ZThn16_NK26CMemSpyThreadInfoContainer9MdcaCountEv @ 458 NONAME ; #<thunk>#
	_ZThn16_NK26CMemSpyThreadInfoContainer9MdcaPointEi @ 459 NONAME ; #<thunk>#
	_ZThn16_NK30CMemSpyThreadInfoActiveObjects9MdcaCountEv @ 460 NONAME ; #<thunk>#
	_ZThn16_NK30CMemSpyThreadInfoActiveObjects9MdcaPointEi @ 461 NONAME ; #<thunk>#
	_ZThn24_N25CMemSpyEngineActiveObjectD0Ev @ 462 NONAME ; #<thunk>#
	_ZThn24_N25CMemSpyEngineActiveObjectD1Ev @ 463 NONAME ; #<thunk>#
	_ZThn24_N25CMemSpyEngineCodeSegEntryD0Ev @ 464 NONAME ; #<thunk>#
	_ZThn24_N25CMemSpyEngineCodeSegEntryD1Ev @ 465 NONAME ; #<thunk>#
	_ZThn24_N25CMemSpyEngineFbServBitmapD0Ev @ 466 NONAME ; #<thunk>#
	_ZThn24_N25CMemSpyEngineFbServBitmapD1Ev @ 467 NONAME ; #<thunk>#
	_ZThn28_N22CMemSpyEngineDriveListD0Ev @ 468 NONAME ; #<thunk>#
	_ZThn28_N22CMemSpyEngineDriveListD1Ev @ 469 NONAME ; #<thunk>#
	_ZThn28_N23CMemSpyEngineDriveEntryD0Ev @ 470 NONAME ; #<thunk>#
	_ZThn28_N23CMemSpyEngineDriveEntryD1Ev @ 471 NONAME ; #<thunk>#
	_ZThn28_N30CMemSpyEngineFbServBitmapArrayD0Ev @ 472 NONAME ; #<thunk>#
	_ZThn28_N30CMemSpyEngineFbServBitmapArrayD1Ev @ 473 NONAME ; #<thunk>#
	_ZThn28_NK22CMemSpyEngineDriveList9MdcaCountEv @ 474 NONAME ; #<thunk>#
	_ZThn28_NK22CMemSpyEngineDriveList9MdcaPointEi @ 475 NONAME ; #<thunk>#
	_ZThn28_NK23CMemSpyEngineDriveEntry9MdcaCountEv @ 476 NONAME ; #<thunk>#
	_ZThn28_NK23CMemSpyEngineDriveEntry9MdcaPointEi @ 477 NONAME ; #<thunk>#
	_ZThn28_NK30CMemSpyEngineFbServBitmapArray9MdcaCountEv @ 478 NONAME ; #<thunk>#
	_ZThn28_NK30CMemSpyEngineFbServBitmapArray9MdcaPointEi @ 479 NONAME ; #<thunk>#
	_ZThn4_N22CMemSpyEngineChunkListD0Ev @ 480 NONAME ; #<thunk>#
	_ZThn4_N22CMemSpyEngineChunkListD1Ev @ 481 NONAME ; #<thunk>#
	_ZThn4_N23CMemSpyEngineServerListD0Ev @ 482 NONAME ; #<thunk>#
	_ZThn4_N23CMemSpyEngineServerListD1Ev @ 483 NONAME ; #<thunk>#
	_ZThn4_N30CMemSpyEngineActiveObjectArrayD0Ev @ 484 NONAME ; #<thunk>#
	_ZThn4_N30CMemSpyEngineActiveObjectArrayD1Ev @ 485 NONAME ; #<thunk>#
	_ZThn4_N41CMemSpyEngineGenericKernelObjectContainerD0Ev @ 486 NONAME ; #<thunk>#
	_ZThn4_N41CMemSpyEngineGenericKernelObjectContainerD1Ev @ 487 NONAME ; #<thunk>#
	_ZThn4_NK22CMemSpyEngineChunkList9MdcaCountEv @ 488 NONAME ; #<thunk>#
	_ZThn4_NK22CMemSpyEngineChunkList9MdcaPointEi @ 489 NONAME ; #<thunk>#
	_ZThn4_NK23CMemSpyEngineChunkEntry9MdcaCountEv @ 490 NONAME ; #<thunk>#
	_ZThn4_NK23CMemSpyEngineChunkEntry9MdcaPointEi @ 491 NONAME ; #<thunk>#
	_ZThn4_NK23CMemSpyEngineServerList9MdcaCountEv @ 492 NONAME ; #<thunk>#
	_ZThn4_NK23CMemSpyEngineServerList9MdcaPointEi @ 493 NONAME ; #<thunk>#
	_ZThn4_NK25CMemSpyEngineEComCategory9MdcaCountEv @ 494 NONAME ; #<thunk>#
	_ZThn4_NK25CMemSpyEngineEComCategory9MdcaPointEi @ 495 NONAME ; #<thunk>#
	_ZThn4_NK26CMemSpyEngineEComInterface9MdcaCountEv @ 496 NONAME ; #<thunk>#
	_ZThn4_NK26CMemSpyEngineEComInterface9MdcaPointEi @ 497 NONAME ; #<thunk>#
	_ZThn4_NK28CMemSpyEngineObjectContainer9MdcaCountEv @ 498 NONAME ; #<thunk>#
	_ZThn4_NK28CMemSpyEngineObjectContainer9MdcaPointEi @ 499 NONAME ; #<thunk>#
	_ZThn4_NK30CMemSpyEngineActiveObjectArray9MdcaCountEv @ 500 NONAME ; #<thunk>#
	_ZThn4_NK30CMemSpyEngineActiveObjectArray9MdcaPointEi @ 501 NONAME ; #<thunk>#
	_ZThn4_NK31CMemSpyEngineEComImplementation9MdcaCountEv @ 502 NONAME ; #<thunk>#
	_ZThn4_NK31CMemSpyEngineEComImplementation9MdcaPointEi @ 503 NONAME ; #<thunk>#
	_ZThn4_NK37CMemSpyEngineHelperSysMemTrackerCycle9MdcaCountEv @ 504 NONAME ; #<thunk>#
	_ZThn4_NK37CMemSpyEngineHelperSysMemTrackerCycle9MdcaPointEi @ 505 NONAME ; #<thunk>#
	_ZThn4_NK41CMemSpyEngineGenericKernelObjectContainer9MdcaCountEv @ 506 NONAME ; #<thunk>#
	_ZThn4_NK41CMemSpyEngineGenericKernelObjectContainer9MdcaPointEi @ 507 NONAME ; #<thunk>#
	_ZThn56_NK24CMemSpyEngineCodeSegList9MdcaCountEv @ 508 NONAME ; #<thunk>#
	_ZThn56_NK24CMemSpyEngineCodeSegList9MdcaPointEi @ 509 NONAME ; #<thunk>#
	_ZThn8_NK23CMemSpyEngineHelperECom9MdcaCountEv @ 510 NONAME ; #<thunk>#
	_ZThn8_NK23CMemSpyEngineHelperECom9MdcaPointEi @ 511 NONAME ; #<thunk>#
	_ZThn8_NK32CMemSpyEngineHelperSysMemTracker9MdcaCountEv @ 512 NONAME ; #<thunk>#
	_ZThn8_NK32CMemSpyEngineHelperSysMemTracker9MdcaPointEi @ 513 NONAME ; #<thunk>#
	_ZN13CMemSpyEngine18HelperWindowServerEv @ 514 NONAME
	_ZN28CMemSpyEngineWindowGroupListD0Ev @ 515 NONAME ABSENT
	_ZN28CMemSpyEngineWindowGroupListD1Ev @ 516 NONAME ABSENT
	_ZN28CMemSpyEngineWindowGroupListD2Ev @ 517 NONAME ABSENT
	_ZN31CMemSpyEngineHelperWindowServer16WindowGroupListLEv @ 518 NONAME ABSENT
	_ZN31CMemSpyEngineHelperWindowServer19GetWindowGroupListLER6RArrayI33TMemSpyEngineWindowGroupBasicInfoE @ 519 NONAME ABSENT
	_ZN31CMemSpyEngineHelperWindowServer22GetWindowGroupDetailsLEiR31TMemSpyEngineWindowGroupDetails @ 520 NONAME ABSENT
	_ZNK28CMemSpyEngineWindowGroupList2AtEi @ 521 NONAME ABSENT
	_ZNK28CMemSpyEngineWindowGroupList5CountEv @ 522 NONAME ABSENT
	_ZNK28CMemSpyEngineWindowGroupList9ItemIndexERK33TMemSpyEngineWindowGroupBasicInfo @ 523 NONAME ABSENT
	_ZNK28CMemSpyEngineWindowGroupList9MdcaCountEv @ 524 NONAME ABSENT
	_ZNK28CMemSpyEngineWindowGroupList9MdcaPointEi @ 525 NONAME ABSENT
	_ZThn4_N28CMemSpyEngineWindowGroupListD0Ev @ 526 NONAME ABSENT
	_ZThn4_N28CMemSpyEngineWindowGroupListD1Ev @ 527 NONAME ABSENT
	_ZThn4_NK28CMemSpyEngineWindowGroupList9MdcaCountEv @ 528 NONAME ABSENT
	_ZThn4_NK28CMemSpyEngineWindowGroupList9MdcaPointEi @ 529 NONAME ABSENT
	_ZN31CMemSpyEngineHelperWindowServer9SwitchToLEi @ 530 NONAME ABSENT
	_ZN13CMemSpyEngine13HelperCondVarEv @ 531 NONAME
	_ZNK14CMemSpyProcess12CapabilitiesEv @ 532 NONAME
	_ZNK14CMemSpyProcess4UIDsEv @ 533 NONAME
	_ZN26CMemSpyEngineHelperCondVar27GetCondVarSuspendedThreadsLERK30TMemSpyDriverHandleInfoGenericR6RArrayI39TMemSpyDriverCondVarSuspendedThreadInfoE @ 534 NONAME
	_ZTI49CMemSpyEngineHelperSysMemTrackerEntryWindowServer @ 535 NONAME ; #<TI>#
	_ZTV49CMemSpyEngineHelperSysMemTrackerEntryWindowServer @ 536 NONAME ; #<VT>#
	_ZN13CMemSpyEngine29IsHelperWindowServerSupportedEv @ 537 NONAME
	_ZN23CMemSpyEngineHelperHeap14NewHeapRawInfoERK15TMemSpyHeapInfo @ 538 NONAME
	_ZNK36CMemSpyEngineGenericKernelObjectList10ItemsCountEv @ 539 NONAME
	_ZNK36CMemSpyEngineGenericKernelObjectList4SizeEv @ 540 NONAME
	_ZNK13CMemSpyThread8PriorityEv @ 541 NONAME

