EXPORTS
	_ZN10DTraceCore11GetInstanceEv @ 1 NONAME
	_ZN10DTraceCore14SwitchToWriterE11TWriterType @ 2 NONAME
	_ZN10DTraceCore16DestroyTraceCoreEv @ 3 NONAME
	_ZN10DTraceCore8IsLoadedEv @ 4 NONAME
	_ZN16DTraceCoreWriter19WriteTraceCoreFrameEmmmmmmmmmmm @ 5 NONAME
	_ZN16DTraceCoreWriter8RegisterEv @ 6 NONAME
	_ZN16DTraceCoreWriterC2E11TWriterType @ 7 NONAME
	_ZN16DTraceCoreWriterD0Ev @ 8 NONAME
	_ZN16DTraceCoreWriterD1Ev @ 9 NONAME
	_ZN16DTraceCoreWriterD2Ev @ 10 NONAME
	_ZN18DTraceActivationIf13ActivateTraceEmm @ 11 NONAME
	_ZN18DTraceActivationIf15DeactivateTraceEmm @ 12 NONAME
	_ZN18DTraceActivationIf16IsTraceActivatedEmm @ 13 NONAME
	_ZN18DTraceCoreOstLddIf6GetSetE24TTraceCoreOstLddIfGetSetm @ 14 NONAME
	_ZN18DTraceCoreSettings8RegisterEv @ 15 NONAME
	_ZN18DTraceCoreSettingsC2Ev @ 16 NONAME
	_ZN18DTraceCoreSettingsD0Ev @ 17 NONAME
	_ZN18DTraceCoreSettingsD1Ev @ 18 NONAME
	_ZN18DTraceCoreSettingsD2Ev @ 19 NONAME
	_ZN20DTraceCoreSubscriber11UnsubscribeEm @ 20 NONAME
	_ZN20DTraceCoreSubscriber9SubscribeEm @ 21 NONAME
	_ZN20DTraceCoreSubscriber9SubscribeEm20TMessageHeaderFormat @ 22 NONAME
	_ZN20DTraceCoreSubscriberC2Ev @ 23 NONAME
	_ZN20DTraceCoreSubscriberD0Ev @ 24 NONAME
	_ZN20DTraceCoreSubscriberD1Ev @ 25 NONAME
	_ZN20DTraceCoreSubscriberD2Ev @ 26 NONAME
	_ZN21DTraceCoreMediaPlugin15MessageReceivedER13TTraceMessage @ 27 NONAME
	_ZN21DTraceCoreMediaPlugin18MergeHeaderAndDataERK13TTraceMessageR5TDes8 @ 28 NONAME
	_ZN21DTraceCoreMediaPlugin8RegisterEv @ 29 NONAME
	_ZN21DTraceCoreMediaPluginC2Ev @ 30 NONAME
	_ZN21DTraceCoreMediaPluginD0Ev @ 31 NONAME
	_ZN21DTraceCoreMediaPluginD1Ev @ 32 NONAME
	_ZN21DTraceCoreMediaPluginD2Ev @ 33 NONAME
	_ZN22DBTraceCategoryHandler11AddCategoryEh @ 34 NONAME
	_ZN22DBTraceCategoryHandler11SetSettingsEP18DTraceCoreSettings @ 35 NONAME
	_ZN22DBTraceCategoryHandler16PrepareSetWriterEP16DTraceCoreWriter @ 36 NONAME
	_ZN22DBTraceCategoryHandler8RegisterEv @ 37 NONAME
	_ZN22DBTraceCategoryHandler9SetWriterEP16DTraceCoreWriter @ 38 NONAME
	_ZN22DBTraceCategoryHandlerC2Ev @ 39 NONAME
	_ZN22DBTraceCategoryHandlerD0Ev @ 40 NONAME
	_ZN22DBTraceCategoryHandlerD1Ev @ 41 NONAME
	_ZN22DBTraceCategoryHandlerD2Ev @ 42 NONAME
	_ZN22DTraceCoreMediaSWriter10WriteStartE16TWriterEntryType @ 43 NONAME
	_ZN22DTraceCoreMediaSWriter8RegisterEv @ 44 NONAME
	_ZN22DTraceCoreMediaSWriter8WriteEndEm @ 45 NONAME
	_ZN22DTraceCoreMediaSWriter9WriteDataEmh @ 46 NONAME
	_ZN22DTraceCoreMediaSWriter9WriteDataEmm @ 47 NONAME
	_ZN22DTraceCoreMediaSWriter9WriteDataEmt @ 48 NONAME
	_ZN22DTraceCoreMediaSWriterC2Ev @ 49 NONAME
	_ZN22DTraceCoreMediaSWriterD0Ev @ 50 NONAME
	_ZN22DTraceCoreMediaSWriterD1Ev @ 51 NONAME
	_ZN22DTraceCoreMediaSWriterD2Ev @ 52 NONAME
	_ZN23DTraceCoreConfiguration6GetSetE23TTraceCoreConfigurationm @ 53 NONAME
	_ZN30MTraceCoreNotificationReceiver10TraceErrorEmmi @ 54 NONAME
	_ZN30MTraceCoreNotificationReceiver28RegisterNotificationReceiverEm @ 55 NONAME
	_ZN30MTraceCoreNotificationReceiver28RegisterNotificationReceiverEml @ 56 NONAME
	_ZN30MTraceCoreNotificationReceiver30UnregisterNotificationReceiverEm @ 57 NONAME
	_ZN30MTraceCoreNotificationReceiver30UnregisterNotificationReceiverEml @ 58 NONAME
	_ZN30MTraceCoreNotificationReceiverC2Ev @ 59 NONAME
	_ZN30MTraceCoreNotificationReceiverD0Ev @ 60 NONAME
	_ZN30MTraceCoreNotificationReceiverD1Ev @ 61 NONAME
	_ZN30MTraceCoreNotificationReceiverD2Ev @ 62 NONAME
	_ZTI16DTraceCoreWriter @ 63 NONAME
	_ZTI18DTraceActivationIf @ 64 NONAME
	_ZTI18DTraceCoreOstLddIf @ 65 NONAME
	_ZTI18DTraceCoreSettings @ 66 NONAME
	_ZTI20DTraceCoreSubscriber @ 67 NONAME
	_ZTI21DTraceCoreMediaPlugin @ 68 NONAME
	_ZTI22DBTraceCategoryHandler @ 69 NONAME
	_ZTI22DTraceCoreMediaSWriter @ 70 NONAME
	_ZTI23DTraceCoreConfiguration @ 71 NONAME
	_ZTI30MTraceCoreNotificationReceiver @ 72 NONAME
	_ZTV16DTraceCoreWriter @ 73 NONAME
	_ZTV18DTraceActivationIf @ 74 NONAME
	_ZTV18DTraceCoreOstLddIf @ 75 NONAME
	_ZTV18DTraceCoreSettings @ 76 NONAME
	_ZTV20DTraceCoreSubscriber @ 77 NONAME
	_ZTV21DTraceCoreMediaPlugin @ 78 NONAME
	_ZTV22DBTraceCategoryHandler @ 79 NONAME
	_ZTV22DTraceCoreMediaSWriter @ 80 NONAME
	_ZTV23DTraceCoreConfiguration @ 81 NONAME
	_ZTV30MTraceCoreNotificationReceiver @ 82 NONAME
	_ZN16DTraceCoreWriter8WriteEndERK15TWriteEndParams @ 83 NONAME
	_ZN10DTraceCore23SetPreviousTraceDroppedEi @ 84 NONAME
	_ZNK10DTraceCore20PreviousTraceDroppedEv @ 85 NONAME
	_ZN16DTraceCoreWriter12TraceDroppedEi @ 86 NONAME
	_ZNK16DTraceCoreWriter19WasLastTraceDroppedEv @ 87 NONAME
	_ZN10DTraceCore14CreateInstanceEv @ 88 NONAME
	_ZN18DTraceActivationIf18RefreshActivationsEv @ 89 NONAME
	_ZN10DTraceCore20GetCurrentWriterTypeEv @ 90 NONAME
	_ZN16DTraceCoreWriter11AbleToWriteEj @ 91 NONAME
	_ZN10DTraceCore15GetActiveWriterEv @ 92 NONAME

