EXPORTS
	_Z11StartEnginev @ 1 NONAME
	_Z14StartNewServerR4TBufILi128EE @ 2 NONAME
	_ZN11RTestEngine12GetTestCasesER15CFixedFlatArrayI9TTestInfoE @ 3 NONAME
	_ZN11RTestEngine12SetAttributeE10TAttributeRK7TDesC16 @ 4 NONAME
	_ZN11RTestEngine13AddConfigFileERK4TBufILi128EERKS0_ILi256EE @ 5 NONAME
	_ZN11RTestEngine13AddTestModuleERK4TBufILi128EERKS0_ILi256EE @ 6 NONAME
	_ZN11RTestEngine16RemoveConfigFileERK4TBufILi128EERKS0_ILi256EE @ 7 NONAME
	_ZN11RTestEngine16RemoveTestModuleERK4TBufILi128EE @ 8 NONAME
	_ZN11RTestEngine17ErrorNotificationER5TPckgI18TErrorNotificationER14TRequestStatus @ 9 NONAME
	_ZN11RTestEngine17OpenLoggerSessionER17RTestEngineServerR15TLoggerSettings @ 10 NONAME
	_ZN11RTestEngine18CancelAsyncRequestEi @ 11 NONAME
	_ZN11RTestEngine18EnumerateTestCasesER8TPckgBufIiER14TRequestStatus @ 12 NONAME
	_ZN11RTestEngine4OpenER17RTestEngineServerRK4TBufILi256EE @ 13 NONAME
	_ZN11RTestEngine5CloseEv @ 14 NONAME
	_ZN11RTestEngine5EventER5TPckgI8TEventIfER14TRequestStatus @ 15 NONAME
	_ZN14RSettingServer17GetLoggerSettingsER15TLoggerSettings @ 16 NONAME
	_ZN14RSettingServer20SetNewIniFileSettingER4TBufILi128EE @ 17 NONAME
	_ZN14RSettingServer21SetIniFileInformationERK4TBufILi256EE @ 18 NONAME
	_ZN14RSettingServer29ReadLoggerSettingsFromIniFileER15TLoggerSettings @ 19 NONAME
	_ZN14RSettingServer5CloseEv @ 20 NONAME
	_ZN14RSettingServer7ConnectEv @ 21 NONAME
	_ZN14RSettingServerC1Ev @ 22 NONAME
	_ZN14RSettingServerC2Ev @ 23 NONAME
	_ZN17RTestEngineServer5CloseEv @ 24 NONAME
	_ZN17RTestEngineServer7ConnectEv @ 25 NONAME
	_ZN26CSTIFTestFrameworkSettings10GetFormatLEP18CStifSectionParser7TPtrC16RN11CStifLogger11TLoggerTypeE @ 26 NONAME
	_ZN26CSTIFTestFrameworkSettings10GetOutputLEP18CStifSectionParser7TPtrC16RN11CStifLogger7TOutputE @ 27 NONAME
	_ZN26CSTIFTestFrameworkSettings13GetOverwriteLEP18CStifSectionParser7TPtrC16Ri @ 28 NONAME
	_ZN26CSTIFTestFrameworkSettings14GetFileSettingEP18CStifSectionParser7TPtrC16RS2_ @ 29 NONAME
	_ZN26CSTIFTestFrameworkSettings14GetReportModeLEP18CStifSectionParser7TPtrC16Rj @ 30 NONAME
	_ZN26CSTIFTestFrameworkSettings19GetBooleanSettingsLEP18CStifSectionParser7TPtrC16Ri @ 31 NONAME
	_ZN26CSTIFTestFrameworkSettings4NewLEv @ 32 NONAME
	_ZN26CSTIFTestFrameworkSettingsD0Ev @ 33 NONAME
	_ZN26CSTIFTestFrameworkSettingsD1Ev @ 34 NONAME
	_ZN26CSTIFTestFrameworkSettingsD2Ev @ 35 NONAME
	_ZN9RTestCase11RunTestCaseER5TPckgI15TFullTestResultER14TRequestStatus @ 36 NONAME
	_ZN9RTestCase14NotifyProgressER5TPckgI13TTestProgressER14TRequestStatus @ 37 NONAME
	_ZN9RTestCase15NotifyRemoteMsgER5TDes812TStifCommand @ 38 NONAME
	_ZN9RTestCase16NotifyRemoteTypeER5TPckgI12TStifCommandERS0_IiER14TRequestStatus @ 39 NONAME
	_ZN9RTestCase18CancelAsyncRequestEi @ 40 NONAME
	_ZN9RTestCase4OpenER17RTestEngineServerRK5TPckgI9TTestInfoE @ 41 NONAME
	_ZN9RTestCase5CloseEv @ 42 NONAME
	_ZN9RTestCase5PauseEv @ 43 NONAME
	_ZN9RTestCase6ResumeEv @ 44 NONAME
	_ZNK14RSettingServer7VersionEv @ 45 NONAME
	_ZNK17RTestEngineServer7VersionEv @ 46 NONAME
	_ZTI11CTestEngine @ 47 NONAME ; #<TI>#
	_ZTI11CTestReport @ 48 NONAME ; #<TI>#
	_ZTI13CErrorPrinter @ 49 NONAME ; #<TI>#
	_ZTI13CRebootParams @ 50 NONAME ; #<TI>#
	_ZTI14CLoggerSetting @ 51 NONAME ; #<TI>#
	_ZTI14CSettingServer @ 52 NONAME ; #<TI>#
	_ZTI16CTestCaseTimeout @ 53 NONAME ; #<TI>#
	_ZTI17CTestEngineServer @ 54 NONAME ; #<TI>#
	_ZTI18CTestEventNotifier @ 55 NONAME ; #<TI>#
	_ZTI19CTestCaseController @ 56 NONAME ; #<TI>#
	_ZTI20CTestEventController @ 57 NONAME ; #<TI>#
	_ZTI21CTestModuleController @ 58 NONAME ; #<TI>#
	_ZTI21CTestProgressNotifier @ 59 NONAME ; #<TI>#
	_ZTI22CTestRemoteCmdNotifier @ 60 NONAME ; #<TI>#
	_ZTI23CTestScripterController @ 61 NONAME ; #<TI>#
	_ZTI26CSTIFTestFrameworkSettings @ 62 NONAME ; #<TI>#
	_ZTI9CTestCase @ 63 NONAME ; #<TI>#
	_ZTV11CTestEngine @ 64 NONAME ; #<VT>#
	_ZTV11CTestReport @ 65 NONAME ; #<VT>#
	_ZTV13CErrorPrinter @ 66 NONAME ; #<VT>#
	_ZTV13CRebootParams @ 67 NONAME ; #<VT>#
	_ZTV14CLoggerSetting @ 68 NONAME ; #<VT>#
	_ZTV14CSettingServer @ 69 NONAME ; #<VT>#
	_ZTV16CTestCaseTimeout @ 70 NONAME ; #<VT>#
	_ZTV17CTestEngineServer @ 71 NONAME ; #<VT>#
	_ZTV18CTestEventNotifier @ 72 NONAME ; #<VT>#
	_ZTV19CTestCaseController @ 73 NONAME ; #<VT>#
	_ZTV20CTestEventController @ 74 NONAME ; #<VT>#
	_ZTV21CTestModuleController @ 75 NONAME ; #<VT>#
	_ZTV21CTestProgressNotifier @ 76 NONAME ; #<VT>#
	_ZTV22CTestRemoteCmdNotifier @ 77 NONAME ; #<VT>#
	_ZTV23CTestScripterController @ 78 NONAME ; #<VT>#
	_ZTV26CSTIFTestFrameworkSettings @ 79 NONAME ; #<VT>#
	_ZTV9CTestCase @ 80 NONAME ; #<VT>#
	_ZN15CTestModuleInfo10AddCfgFileER7TDesC16 @ 81 NONAME
	_ZN15CTestModuleInfo10SetIniFileER7TDesC16 @ 82 NONAME
	_ZN15CTestModuleInfo13CountCfgFilesEv @ 83 NONAME
	_ZN15CTestModuleInfo13GetModuleNameER6TDes16 @ 84 NONAME
	_ZN15CTestModuleInfo14GetCfgFileNameEiR6TDes16 @ 85 NONAME
	_ZN15CTestModuleInfo14GetIniFileNameER6TDes16 @ 86 NONAME
	_ZN15CTestModuleList13AddTestModuleER7TDesC16 @ 87 NONAME
	_ZN15CTestModuleList19GetUncheckedCfgFileEv @ 88 NONAME
	_ZN15CTestModuleList4NewLEP11CStifLogger @ 89 NONAME
	_ZN15CTestModuleList5CountEv @ 90 NONAME
	_ZN15CTestModuleList9GetModuleER7TDesC16 @ 91 NONAME
	_ZN15CTestModuleList9GetModuleEi @ 92 NONAME
	_ZN15CTestModuleListD0Ev @ 93 NONAME
	_ZN15CTestModuleListD1Ev @ 94 NONAME
	_ZN15CTestModuleListD2Ev @ 95 NONAME
	_ZN17CTestCaseFileInfo10SetCheckedEv @ 96 NONAME
	_ZN17CTestCaseFileInfo14GetCfgFileNameER6TDes16 @ 97 NONAME
	_ZTI15CTestModuleInfo @ 98 NONAME ; #<TI>#
	_ZTI15CTestModuleList @ 99 NONAME ; #<TI>#
	_ZTI17CTestCaseFileInfo @ 100 NONAME ; #<TI>#
	_ZTV15CTestModuleInfo @ 101 NONAME ; #<VT>#
	_ZTV15CTestModuleList @ 102 NONAME ; #<VT>#
	_ZTV17CTestCaseFileInfo @ 103 NONAME ; #<VT>#
	_ZTI20CTestCommandNotifier @ 104 NONAME ; #<TI>#
	_ZTV20CTestCommandNotifier @ 105 NONAME ; #<VT>#
	_ZN14RSettingServer17GetEngineSettingsER15TEngineSettings @ 106 NONAME
	_ZN14RSettingServer19StoreEngineSettingsER15TEngineSettings @ 107 NONAME
	_ZTI21CTestEngineSubSession @ 108 NONAME ; #<TI>#
	_ZTV21CTestEngineSubSession @ 109 NONAME ; #<VT>#
	_ZN26CSTIFTestFrameworkSettings10GetFormatLEP18CStifSectionParser7TPtrC16RN11CStifLogger11TLoggerTypeERi @ 110 NONAME
	_ZN11RTestEngine29AddTestCaseResultToTestReportERK9TTestInfoRK15TFullTestResulti @ 111 NONAME
	_ZN9RTestCase11RunTestCaseER5TPckgI15TFullTestResultERK7TDesC16R14TRequestStatus @ 112 NONAME

