EXPORTS
	??0CScriptBase@@IAE@AAVCTestModuleIf@@@Z @ 1 NONAME ; CScriptBase::CScriptBase(class CTestModuleIf &)
	??0TErrorNotification@@QAE@XZ @ 2 NONAME ; TErrorNotification::TErrorNotification(void)
	??0TFullTestResult@@QAE@XZ @ 3 NONAME ; TFullTestResult::TFullTestResult(void)
	??0TTestCaseInfo@@QAE@XZ @ 4 NONAME ; TTestCaseInfo::TTestCaseInfo(void)
	??0TTestInfo@@QAE@XZ @ 5 NONAME ; TTestInfo::TTestInfo(void)
	??0TTestProgress@@QAE@XZ @ 6 NONAME ; TTestProgress::TTestProgress(void)
	??0TTestResult@@QAE@XZ @ 7 NONAME ; TTestResult::TTestResult(void)
	??1CStifParser@@UAE@XZ @ 8 NONAME ; CStifParser::~CStifParser(void)
	??1CStifTFwIfProt@@UAE@XZ @ 9 NONAME ; CStifTFwIfProt::~CStifTFwIfProt(void)
	??1CTestModuleParamVer01@@UAE@XZ @ 10 NONAME ; CTestModuleParamVer01::~CTestModuleParamVer01(void)
	?Append@CStifTFwIfProt@@QAEHABVTDesC16@@@Z @ 11 NONAME ; int CStifTFwIfProt::Append(class TDesC16 const &)
	?Append@CStifTFwIfProt@@QAEHP6A?AVTPtrC16@@H@ZH0H@Z @ 12 NONAME ; int CStifTFwIfProt::Append(class TPtrC16 (*)(int), int, class TPtrC16 (*)(int), int)
	?Append@CStifTFwIfProt@@QAEHP6A?AVTPtrC16@@H@ZH@Z @ 13 NONAME ; int CStifTFwIfProt::Append(class TPtrC16 (*)(int), int)
	?Append@CStifTFwIfProt@@QAEHP6A?AVTPtrC16@@H@ZHABVTDesC16@@@Z @ 14 NONAME ; int CStifTFwIfProt::Append(class TPtrC16 (*)(int), int, class TDesC16 const &)
	?Append@CStifTFwIfProt@@QAEHP6A?AVTPtrC16@@H@ZHH@Z @ 15 NONAME ; int CStifTFwIfProt::Append(class TPtrC16 (*)(int), int, int)
	?AppendId@CStifTFwIfProt@@QAEHK@Z @ 16 NONAME ; int CStifTFwIfProt::AppendId(unsigned long)
	?CallTestClass@CScriptBase@@QAEHABVTDesC16@@@Z @ 17 NONAME ; int CScriptBase::CallTestClass(class TDesC16 const &)
	?CancelEvent@CTestModuleIf@@QAEHAAVTEventIf@@PAVTRequestStatus@@@Z @ 18 NONAME ; int CTestModuleIf::CancelEvent(class TEventIf &, class TRequestStatus *)
	?CancelSignal@CScriptBase@@AAEXXZ @ 19 NONAME ; void CScriptBase::CancelSignal(void)
	?CheckAllowResult@CTestModuleIf@@QAEHH@Z @ 20 NONAME ; int CTestModuleIf::CheckAllowResult(int)
	?CmdType@CStifTFwIfProt@@SA?AVTPtrC16@@H@Z @ 21 NONAME ; class TPtrC16 CStifTFwIfProt::CmdType(int)
	?CreateL@CStifTFwIfProt@@QAEXH@Z @ 22 NONAME ; void CStifTFwIfProt::CreateL(int)
	?CreationResult@CStifLogger@@QAEHXZ @ 23 NONAME ; int CStifLogger::CreationResult(void)
	?DstDevId@CStifTFwIfProt@@QAEGXZ @ 24 NONAME ; unsigned short CStifTFwIfProt::DstDevId(void)
	?DstId@CStifTFwIfProt@@QAEKXZ @ 25 NONAME ; unsigned long CStifTFwIfProt::DstId(void)
	?DstTestId@CStifTFwIfProt@@QAEGXZ @ 26 NONAME ; unsigned short CStifTFwIfProt::DstTestId(void)
	?EnableSignal@CScriptBase@@AAEXAAVTRequestStatus@@@Z @ 27 NONAME ; void CScriptBase::EnableSignal(class TRequestStatus &)
	?Event@CTestModuleIf@@QAEHAAVTEventIf@@@Z @ 28 NONAME ; int CTestModuleIf::Event(class TEventIf &)
	?Event@CTestModuleIf@@QAEXAAVTEventIf@@AAVTRequestStatus@@@Z @ 29 NONAME ; void CTestModuleIf::Event(class TEventIf &, class TRequestStatus &)
	?EventStatus@CStifTFwIfProt@@SA?AVTPtrC16@@H@Z @ 30 NONAME ; class TPtrC16 CStifTFwIfProt::EventStatus(int)
	?EventStatusParams@CStifTFwIfProt@@SA?AVTPtrC16@@H@Z @ 31 NONAME ; class TPtrC16 CStifTFwIfProt::EventStatusParams(int)
	?EventType@CStifTFwIfProt@@SA?AVTPtrC16@@H@Z @ 32 NONAME ; class TPtrC16 CStifTFwIfProt::EventType(int)
	?GetChar@CStifItemParser@@QAEHABVTDesC16@@AAVTChar@@@Z @ 33 NONAME ; int CStifItemParser::GetChar(class TDesC16 const &, class TChar &)
	?GetInt@CStifItemParser@@QAEHABVTDesC16@@AAH@Z @ 34 NONAME ; int CStifItemParser::GetInt(class TDesC16 const &, int &)
	?GetInt@CStifItemParser@@QAEHABVTDesC16@@AAIW4TRadix@@@Z @ 35 NONAME ; int CStifItemParser::GetInt(class TDesC16 const &, unsigned int &, enum TRadix)
	?GetItemLineL@CStifSectionParser@@QAEPAVCStifItemParser@@ABVTDesC16@@W4TTagToReturnValue@@@Z @ 36 NONAME ; class CStifItemParser * CStifSectionParser::GetItemLineL(class TDesC16 const &, enum TTagToReturnValue)
	?GetLine@CStifSectionParser@@QAEHABVTDesC16@@AAVTPtrC16@@W4TTagToReturnValue@@@Z @ 37 NONAME ; int CStifSectionParser::GetLine(class TDesC16 const &, class TPtrC16 &, enum TTagToReturnValue)
	?GetMeasurementOptions@CTestModuleIf@@QAEHAAH@Z @ 38 NONAME ; int CTestModuleIf::GetMeasurementOptions(int &)
	?GetNextChar@CStifItemParser@@QAEHAAVTChar@@@Z @ 39 NONAME ; int CStifItemParser::GetNextChar(class TChar &)
	?GetNextChar@CStifItemParser@@QAEHABVTDesC16@@AAVTChar@@@Z @ 40 NONAME ; int CStifItemParser::GetNextChar(class TDesC16 const &, class TChar &)
	?GetNextInt@CStifItemParser@@QAEHAAH@Z @ 41 NONAME ; int CStifItemParser::GetNextInt(int &)
	?GetNextInt@CStifItemParser@@QAEHAAIW4TRadix@@@Z @ 42 NONAME ; int CStifItemParser::GetNextInt(unsigned int &, enum TRadix)
	?GetNextInt@CStifItemParser@@QAEHABVTDesC16@@AAH@Z @ 43 NONAME ; int CStifItemParser::GetNextInt(class TDesC16 const &, int &)
	?GetNextInt@CStifItemParser@@QAEHABVTDesC16@@AAIW4TRadix@@@Z @ 44 NONAME ; int CStifItemParser::GetNextInt(class TDesC16 const &, unsigned int &, enum TRadix)
	?GetNextItemLineL@CStifSectionParser@@QAEPAVCStifItemParser@@ABVTDesC16@@W4TTagToReturnValue@@@Z @ 45 NONAME ; class CStifItemParser * CStifSectionParser::GetNextItemLineL(class TDesC16 const &, enum TTagToReturnValue)
	?GetNextItemLineL@CStifSectionParser@@QAEPAVCStifItemParser@@XZ @ 46 NONAME ; class CStifItemParser * CStifSectionParser::GetNextItemLineL(void)
	?GetNextLine@CStifSectionParser@@QAEHAAVTPtrC16@@@Z @ 47 NONAME ; int CStifSectionParser::GetNextLine(class TPtrC16 &)
	?GetNextLine@CStifSectionParser@@QAEHABVTDesC16@@AAVTPtrC16@@W4TTagToReturnValue@@@Z @ 48 NONAME ; int CStifSectionParser::GetNextLine(class TDesC16 const &, class TPtrC16 &, enum TTagToReturnValue)
	?GetNextString@CStifItemParser@@QAEHAAVTPtrC16@@@Z @ 49 NONAME ; int CStifItemParser::GetNextString(class TPtrC16 &)
	?GetNextString@CStifItemParser@@QAEHABVTDesC16@@AAVTPtrC16@@@Z @ 50 NONAME ; int CStifItemParser::GetNextString(class TDesC16 const &, class TPtrC16 &)
	?GetPosition@CStifSectionParser@@QAEHXZ @ 51 NONAME ; int CStifSectionParser::GetPosition(void)
	?GetStoredState@CTestModuleIf@@QAEHAAHAAV?$TBuf@$0IA@@@@Z @ 52 NONAME ; int CTestModuleIf::GetStoredState(int &, class TBuf<128> &)
	?GetString@CStifItemParser@@QAEHABVTDesC16@@AAVTPtrC16@@@Z @ 53 NONAME ; int CStifItemParser::GetString(class TDesC16 const &, class TPtrC16 &)
	?GetTestObject@CScriptBase@@QAEPAV1@ABVTDesC16@@@Z @ 54 NONAME ; class CScriptBase * CScriptBase::GetTestObject(class TDesC16 const &)
	?Log@CStifLogger@@QAAHHV?$TRefByValue@$$CBVTDesC16@@@@ZZ @ 55 NONAME ; int CStifLogger::Log(int, class TRefByValue<class TDesC16 const >, ...)
	?Log@CStifLogger@@QAAHHV?$TRefByValue@$$CBVTDesC8@@@@ZZ @ 56 NONAME ; int CStifLogger::Log(int, class TRefByValue<class TDesC8 const >, ...)
	?Log@CStifLogger@@QAAHV?$TRefByValue@$$CBVTDesC16@@@@ZZ @ 57 NONAME ; int CStifLogger::Log(class TRefByValue<class TDesC16 const >, ...)
	?Log@CStifLogger@@QAAHV?$TRefByValue@$$CBVTDesC8@@@@ZZ @ 58 NONAME ; int CStifLogger::Log(class TRefByValue<class TDesC8 const >, ...)
	?Log@CStifLogger@@QAEHABVTDesC16@@@Z @ 59 NONAME ; int CStifLogger::Log(class TDesC16 const &)
	?Log@CStifLogger@@QAEHABVTDesC8@@@Z @ 60 NONAME ; int CStifLogger::Log(class TDesC8 const &)
	?Log@CStifLogger@@QAEHHABVTDesC16@@@Z @ 61 NONAME ; int CStifLogger::Log(int, class TDesC16 const &)
	?Log@CStifLogger@@QAEHHABVTDesC8@@@Z @ 62 NONAME ; int CStifLogger::Log(int, class TDesC8 const &)
	?MsgType@CStifTFwIfProt@@SA?AVTPtrC16@@H@Z @ 63 NONAME ; class TPtrC16 CStifTFwIfProt::MsgType(int)
	?NewL@CSTIFTestMeasurement@@SAPAV1@PAVCTestModuleBase@@W4TSTIFMeasurementType@1@ABVTDesC16@@@Z @ 64 NONAME ; class CSTIFTestMeasurement * CSTIFTestMeasurement::NewL(class CTestModuleBase *, enum CSTIFTestMeasurement::TSTIFMeasurementType, class TDesC16 const &)
	?NewL@CStifItemParser@@SAPAV1@VTPtrC16@@HH@Z @ 65 NONAME ; class CStifItemParser * CStifItemParser::NewL(class TPtrC16, int, int)
	?NewL@CStifLogger@@KAPAV1@ABVTDesC16@@0AAUTLoggerSettings@@@Z @ 66 NONAME ; class CStifLogger * CStifLogger::NewL(class TDesC16 const &, class TDesC16 const &, struct TLoggerSettings &)
	?NewL@CStifLogger@@SAPAV1@ABVTDesC16@@0W4TLoggerType@1@W4TOutput@1@HHHHHHHH@Z @ 67 NONAME ; class CStifLogger * CStifLogger::NewL(class TDesC16 const &, class TDesC16 const &, enum CStifLogger::TLoggerType, enum CStifLogger::TOutput, int, int, int, int, int, int, int, int)
	?NewL@CStifParser@@SAPAV1@ABVTDesC16@@0W4TCommentType@1@@Z @ 68 NONAME ; class CStifParser * CStifParser::NewL(class TDesC16 const &, class TDesC16 const &, enum CStifParser::TCommentType)
	?NewL@CStifParser@@SAPAV1@ABVTDesC16@@W4TCommentType@1@@Z @ 69 NONAME ; class CStifParser * CStifParser::NewL(class TDesC16 const &, enum CStifParser::TCommentType)
	?NewL@CStifTFwIfProt@@SAPAV1@XZ @ 70 NONAME ; class CStifTFwIfProt * CStifTFwIfProt::NewL(void)
	?NewL@CTestModuleIf@@SAPAV1@PAVCTestThreadContainer@@PAVCTestModuleBase@@@Z @ 71 NONAME ; class CTestModuleIf * CTestModuleIf::NewL(class CTestThreadContainer *, class CTestModuleBase *)
	?NewL@CTestModuleParamVer01@@SAPAV1@XZ @ 72 NONAME ; class CTestModuleParamVer01 * CTestModuleParamVer01::NewL(void)
	?NewL@MSTIFTestInterference@@SAPAV1@PAVCTestModuleBase@@W4TStifTestInterferenceCategory@1@@Z @ 73 NONAME ; class MSTIFTestInterference * MSTIFTestInterference::NewL(class CTestModuleBase *, enum MSTIFTestInterference::TStifTestInterferenceCategory)
	?NextSectionL@CStifParser@@QAEPAVCStifSectionParser@@ABVTDesC16@@0H@Z @ 74 NONAME ; class CStifSectionParser * CStifParser::NextSectionL(class TDesC16 const &, class TDesC16 const &, int)
	?NextSubSectionL@CStifSectionParser@@QAEPAV1@ABVTDesC16@@0H@Z @ 75 NONAME ; class CStifSectionParser * CStifSectionParser::NextSubSectionL(class TDesC16 const &, class TDesC16 const &, int)
	?OutputType@CStifLogger@@QAE?AW4TOutput@1@XZ @ 76 NONAME ; enum CStifLogger::TOutput CStifLogger::OutputType(void)
	?ParsingType@CStifItemParser@@QAE?AW4TParsingType@1@XZ @ 77 NONAME ; enum CStifItemParser::TParsingType CStifItemParser::ParsingType(void)
	?Printf@CTestModuleIf@@QAAXHABVTDesC16@@V?$TRefByValue@$$CBVTDesC16@@@@ZZ @ 78 NONAME ; void CTestModuleIf::Printf(int, class TDesC16 const &, class TRefByValue<class TDesC16 const >, ...)
	?Reboot@CTestModuleIf@@QAEHH@Z @ 79 NONAME ; int CTestModuleIf::Reboot(int)
	?Remainder@CStifItemParser@@QAEHAAVTPtrC16@@@Z @ 80 NONAME ; int CStifItemParser::Remainder(class TPtrC16 &)
	?RemoteReceive@CTestModuleIf@@QAEXAAVTDes16@@AAVTRequestStatus@@@Z @ 81 NONAME ; void CTestModuleIf::RemoteReceive(class TDes16 &, class TRequestStatus &)
	?RemoteReceiveCancel@CTestModuleIf@@QAEXXZ @ 82 NONAME ; void CTestModuleIf::RemoteReceiveCancel(void)
	?RemoteSend@CTestModuleIf@@QAEHABVTDesC16@@@Z @ 83 NONAME ; int CTestModuleIf::RemoteSend(class TDesC16 const &)
	?RemoteType@CStifTFwIfProt@@SA?AVTPtrC16@@H@Z @ 84 NONAME ; class TPtrC16 CStifTFwIfProt::RemoteType(int)
	?ResetAllowResult@CTestModuleIf@@QAEHXZ @ 85 NONAME ; int CTestModuleIf::ResetAllowResult(void)
	?RespParam@CStifTFwIfProt@@SA?AVTPtrC16@@H@Z @ 86 NONAME ; class TPtrC16 CStifTFwIfProt::RespParam(int)
	?ResultCategory@CStifTFwIfProt@@SA?AVTPtrC16@@H@Z @ 87 NONAME ; class TPtrC16 CStifTFwIfProt::ResultCategory(int)
	?RunInternalL@CScriptBase@@MAEHQBVTStifFunctionInfo@@HAAVCStifItemParser@@@Z @ 88 NONAME ; int CScriptBase::RunInternalL(class TStifFunctionInfo const * const, int, class CStifItemParser &)
	?RunParams@CStifTFwIfProt@@SA?AVTPtrC16@@H@Z @ 89 NONAME ; class TPtrC16 CStifTFwIfProt::RunParams(int)
	?RunStatus@CStifTFwIfProt@@SA?AVTPtrC16@@H@Z @ 90 NONAME ; class TPtrC16 CStifTFwIfProt::RunStatus(int)
	?RunStatusParams@CStifTFwIfProt@@SA?AVTPtrC16@@H@Z @ 91 NONAME ; class TPtrC16 CStifTFwIfProt::RunStatusParams(int)
	?SaveData@CStifLogger@@QAEHAAVTDesC16@@@Z @ 92 NONAME ; int CStifLogger::SaveData(class TDesC16 &)
	?SaveData@CStifLogger@@QAEHAAVTDesC8@@@Z @ 93 NONAME ; int CStifLogger::SaveData(class TDesC8 &)
	?SectionL@CStifParser@@QAEPAVCStifSectionParser@@ABVTDesC16@@0H@Z @ 94 NONAME ; class CStifSectionParser * CStifParser::SectionL(class TDesC16 const &, class TDesC16 const &, int)
	?SetAllowResult@CTestModuleIf@@QAEHH@Z @ 95 NONAME ; int CTestModuleIf::SetAllowResult(int)
	?SetBehavior@CTestModuleIf@@QAEHW4TTestBehavior@1@PAX@Z @ 96 NONAME ; int CTestModuleIf::SetBehavior(enum CTestModuleIf::TTestBehavior, void *)
	?SetCmdType@CStifTFwIfProt@@QAEHW4TCmdType@1@@Z @ 97 NONAME ; int CStifTFwIfProt::SetCmdType(enum CStifTFwIfProt::TCmdType)
	?SetDstId@CStifTFwIfProt@@QAEHK@Z @ 98 NONAME ; int CStifTFwIfProt::SetDstId(unsigned long)
	?SetExitReason@CTestModuleIf@@QAEXW4TExitReason@1@H@Z @ 99 NONAME ; void CTestModuleIf::SetExitReason(enum CTestModuleIf::TExitReason, int)
	?SetL@CStifTFwIfProt@@QAEHABVTDesC16@@@Z @ 100 NONAME ; int CStifTFwIfProt::SetL(class TDesC16 const &)
	?SetMsgType@CStifTFwIfProt@@QAEHW4TMsgType@1@@Z @ 101 NONAME ; int CStifTFwIfProt::SetMsgType(enum CStifTFwIfProt::TMsgType)
	?SetParsingType@CStifItemParser@@QAEHW4TParsingType@1@@Z @ 102 NONAME ; int CStifItemParser::SetParsingType(enum CStifItemParser::TParsingType)
	?SetPosition@CStifSectionParser@@QAEHH@Z @ 103 NONAME ; int CStifSectionParser::SetPosition(int)
	?SetRespType@CStifTFwIfProt@@QAEHW4TMsgType@1@@Z @ 104 NONAME ; int CStifTFwIfProt::SetRespType(enum CStifTFwIfProt::TMsgType)
	?SetResult@TTestResult@@QAEXHABVTDesC16@@@Z @ 105 NONAME ; void TTestResult::SetResult(int, class TDesC16 const &)
	?SetScripter@CScriptBase@@AAEXP6AHPAVCTestScripter@@W4TStifTSCallBackType@@ABVTDesC16@@@Z0@Z @ 106 NONAME ; void CScriptBase::SetScripter(int (*)(class CTestScripter *, enum TStifTSCallBackType, class TDesC16 const &), class CTestScripter *)
	?SetSrcId@CStifTFwIfProt@@QAEHK@Z @ 107 NONAME ; int CStifTFwIfProt::SetSrcId(unsigned long)
	?Signal@CScriptBase@@QAEXH@Z @ 108 NONAME ; void CScriptBase::Signal(int)
	?SrcDevId@CStifTFwIfProt@@QAEGXZ @ 109 NONAME ; unsigned short CStifTFwIfProt::SrcDevId(void)
	?SrcId@CStifTFwIfProt@@QAEKXZ @ 110 NONAME ; unsigned long CStifTFwIfProt::SrcId(void)
	?SrcTestId@CStifTFwIfProt@@QAEGXZ @ 111 NONAME ; unsigned short CStifTFwIfProt::SrcTestId(void)
	?Start@CSTIFTestMeasurement@@QAEHXZ @ 112 NONAME ; int CSTIFTestMeasurement::Start(void)
	?StartSession@@YAHXZ @ 113 NONAME ; int StartSession(void)
	?StifMacroError@CTestModuleIf@@QAEHHPBEPBDHHHHHHH@Z @ 114 NONAME ; int CTestModuleIf::StifMacroError(int, unsigned char const *, char const *, int, int, int, int, int, int, int)
	?Stop@CSTIFTestMeasurement@@QAEHXZ @ 115 NONAME ; int CSTIFTestMeasurement::Stop(void)
	?StoreState@CTestModuleIf@@QAEHHAAV?$TBuf@$0IA@@@@Z @ 116 NONAME ; int CTestModuleIf::StoreState(int, class TBuf<128> &)
	?SubSectionL@CStifSectionParser@@QAEPAV1@ABVTDesC16@@0H@Z @ 117 NONAME ; class CStifSectionParser * CStifSectionParser::SubSectionL(class TDesC16 const &, class TDesC16 const &, int)
	?TestModuleIf@CScriptBase@@QAEAAVCTestModuleIf@@XZ @ 118 NONAME ; class CTestModuleIf & CScriptBase::TestModuleIf(void)
	?WriteDelimiter@CStifLogger@@QAEHABVTDesC16@@H@Z @ 119 NONAME ; int CStifLogger::WriteDelimiter(class TDesC16 const &, int)
	?WriteDelimiter@CStifLogger@@QAEHABVTDesC8@@H@Z @ 120 NONAME ; int CStifLogger::WriteDelimiter(class TDesC8 const &, int)
	?StopExecution@CTestModuleIf@@QAEHW4TStopExecutionType@@H@Z @ 121 NONAME ; int CTestModuleIf::StopExecution(enum TStopExecutionType, int)
	?GetConstantValue@CScriptBase@@IAEHABVTDesC16@@AAH@Z @ 122 NONAME ; int CScriptBase::GetConstantValue(class TDesC16 const &, int &)
	?GetConstantValue@CScriptBase@@IAEHABVTDesC16@@AAN@Z @ 123 NONAME ; int CScriptBase::GetConstantValue(class TDesC16 const &, double &)
	?GetConstantValue@CScriptBase@@IAEHABVTDesC16@@AAVTDes16@@@Z @ 124 NONAME ; int CScriptBase::GetConstantValue(class TDesC16 const &, class TDes16 &)
	?CorrectFilePathL@TStifUtil@@SAXAAVTDes16@@@Z @ 125 NONAME ; void TStifUtil::CorrectFilePathL(class TDes16 &)
	?GetTestCaseTitleL@CTestModuleIf@@QAEXAAVTDes16@@@Z @ 126 NONAME ; void CTestModuleIf::GetTestCaseTitleL(class TDes16 &)
	?STIFVersion@TStifUtil@@SAXAAH00AAVTDes16@@@Z @ 127 NONAME ; void TStifUtil::STIFVersion(int &, int &, int &, class TDes16 &)
	?GetUiEnvProxy@CTestModuleIf@@QAEPAVCUiEnvProxy@@XZ @ 128 NONAME ; class CUiEnvProxy * CTestModuleIf::GetUiEnvProxy(void)
	?UITesting@CTestModuleIf@@QAEHXZ @ 129 NONAME ; int CTestModuleIf::UITesting(void)
	?SendTestModuleVersion@CTestModuleIf@@QAEHVTVersion@@V?$TBuf@$0BAA@@@@Z @ 130 NONAME ; int CTestModuleIf::SendTestModuleVersion(class TVersion, class TBuf<256>)
	?SendTestModuleVersion@CTestModuleIf@@QAEHAAVTVersion@@ABVTDesC16@@H@Z @ 131 NONAME ; int CTestModuleIf::SendTestModuleVersion(class TVersion &, class TDesC16 const &, int)
	?SetResultDescription@CScriptBase@@QAEXABVTDesC16@@@Z @ 132 NONAME ; void CScriptBase::SetResultDescription(class TDesC16 const &)
	?SetLocalValue@CScriptBase@@IAEHABVTDesC16@@0@Z @ 133 NONAME ; int CScriptBase::SetLocalValue(class TDesC16 const &, class TDesC16 const &)
	?SetLocalValue@CScriptBase@@IAEHABVTDesC16@@H@Z @ 134 NONAME ; int CScriptBase::SetLocalValue(class TDesC16 const &, int)
	?SetLocalValue@CScriptBase@@IAEHABVTDesC16@@N@Z @ 135 NONAME ; int CScriptBase::SetLocalValue(class TDesC16 const &, double)
	?GetLocalValue@CScriptBase@@IAEHABVTDesC16@@AAH@Z @ 136 NONAME ; int CScriptBase::GetLocalValue(class TDesC16 const &, int &)
	?GetLocalValue@CScriptBase@@IAEHABVTDesC16@@AAN@Z @ 137 NONAME ; int CScriptBase::GetLocalValue(class TDesC16 const &, double &)
	?GetLocalValue@CScriptBase@@IAEHABVTDesC16@@AAVTDes16@@@Z @ 138 NONAME ; int CScriptBase::GetLocalValue(class TDesC16 const &, class TDes16 &)
	?GetTestCaseArguments@CTestModuleIf@@QBEABVTDesC16@@XZ @ 139 NONAME ; class TDesC16 const & CTestModuleIf::GetTestCaseArguments(void) const

