EXPORTS
	??0CMemSpyEngineObject@@QAE@AAV0@@Z @ 1 NONAME ; CMemSpyEngineObject::CMemSpyEngineObject(class CMemSpyEngineObject &)
	??0CMemSpyEngineObject@@QAE@XZ @ 2 NONAME ; CMemSpyEngineObject::CMemSpyEngineObject(void)
	??1CMemSpyDeviceWideOperations@@UAE@XZ @ 3 NONAME ; CMemSpyDeviceWideOperations::~CMemSpyDeviceWideOperations(void)
	??1CMemSpyEngine@@UAE@XZ @ 4 NONAME ; CMemSpyEngine::~CMemSpyEngine(void)
	??1CMemSpyEngineActiveObject@@UAE@XZ @ 5 NONAME ; CMemSpyEngineActiveObject::~CMemSpyEngineActiveObject(void)
	??1CMemSpyEngineActiveObjectArray@@UAE@XZ @ 6 NONAME ; CMemSpyEngineActiveObjectArray::~CMemSpyEngineActiveObjectArray(void)
	??1CMemSpyEngineChunkList@@UAE@XZ @ 7 NONAME ; CMemSpyEngineChunkList::~CMemSpyEngineChunkList(void)
	??1CMemSpyEngineCodeSegEntry@@UAE@XZ @ 8 NONAME ; CMemSpyEngineCodeSegEntry::~CMemSpyEngineCodeSegEntry(void)
	??1CMemSpyEngineDriveEntry@@UAE@XZ @ 9 NONAME ; CMemSpyEngineDriveEntry::~CMemSpyEngineDriveEntry(void)
	??1CMemSpyEngineDriveList@@UAE@XZ @ 10 NONAME ; CMemSpyEngineDriveList::~CMemSpyEngineDriveList(void)
	??1CMemSpyEngineFbServBitmap@@UAE@XZ @ 11 NONAME ; CMemSpyEngineFbServBitmap::~CMemSpyEngineFbServBitmap(void)
	??1CMemSpyEngineFbServBitmapArray@@UAE@XZ @ 12 NONAME ; CMemSpyEngineFbServBitmapArray::~CMemSpyEngineFbServBitmapArray(void)
	??1CMemSpyEngineGenericKernelObjectContainer@@UAE@XZ @ 13 NONAME ; CMemSpyEngineGenericKernelObjectContainer::~CMemSpyEngineGenericKernelObjectContainer(void)
	??1CMemSpyEngineGenericKernelObjectList@@UAE@XZ @ 14 NONAME ; CMemSpyEngineGenericKernelObjectList::~CMemSpyEngineGenericKernelObjectList(void)
	??1CMemSpyEngineOpenFileList@@UAE@XZ @ 15 NONAME ; CMemSpyEngineOpenFileList::~CMemSpyEngineOpenFileList(void)
	??1CMemSpyEngineServerEntry@@UAE@XZ @ 16 NONAME ; CMemSpyEngineServerEntry::~CMemSpyEngineServerEntry(void)
	??1CMemSpyEngineServerList@@UAE@XZ @ 17 NONAME ; CMemSpyEngineServerList::~CMemSpyEngineServerList(void)
	??1CMemSpyEngineSinkMetaData@@UAE@XZ @ 18 NONAME ; CMemSpyEngineSinkMetaData::~CMemSpyEngineSinkMetaData(void)
	?AccessCount@CMemSpyEngineObject@@QBEHXZ @ 19 NONAME ; int CMemSpyEngineObject::AccessCount(void) const
	?ActiveObjectListL@CMemSpyEngineHelperActiveObject@@QAEPAVCMemSpyEngineActiveObjectArray@@ABVCMemSpyThread@@@Z @ 20 NONAME ; class CMemSpyEngineActiveObjectArray * CMemSpyEngineHelperActiveObject::ActiveObjectListL(class CMemSpyThread const &)
	?AddInfoL@CMemSpyEngineHelperROM@@QAEXAAVCMemSpyEngineOutputList@@@Z @ 21 NONAME ; void CMemSpyEngineHelperROM::AddInfoL(class CMemSpyEngineOutputList &)
	?AddObserverL@CMemSpyEngineProcessMemoryTracker@@QAEXAAVMMemSpyEngineProcessMemoryTrackerObserver@@@Z @ 22 NONAME ; void CMemSpyEngineProcessMemoryTracker::AddObserverL(class MMemSpyEngineProcessMemoryTrackerObserver &)
	?AmTracking@CMemSpyEngineProcessMemoryTracker@@QBEHXZ @ 23 NONAME ; int CMemSpyEngineProcessMemoryTracker::AmTracking(void) const
	?AppendOwnerName@CMemSpyEngineChunkEntry@@QBEXAAVTDes16@@@Z @ 24 NONAME ; void CMemSpyEngineChunkEntry::AppendOwnerName(class TDes16 &) const
	?At@CMemSpyEngineActiveObjectArray@@QAEAAVCMemSpyEngineActiveObject@@H@Z @ 25 NONAME ; class CMemSpyEngineActiveObject & CMemSpyEngineActiveObjectArray::At(int)
	?At@CMemSpyEngineActiveObjectArray@@QBEABVCMemSpyEngineActiveObject@@H@Z @ 26 NONAME ; class CMemSpyEngineActiveObject const & CMemSpyEngineActiveObjectArray::At(int) const
	?At@CMemSpyEngineChunkList@@QAEAAVCMemSpyEngineChunkEntry@@H@Z @ 27 NONAME ; class CMemSpyEngineChunkEntry & CMemSpyEngineChunkList::At(int)
	?At@CMemSpyEngineChunkList@@QBEABVCMemSpyEngineChunkEntry@@H@Z @ 28 NONAME ; class CMemSpyEngineChunkEntry const & CMemSpyEngineChunkList::At(int) const
	?At@CMemSpyEngineDriveList@@QAEAAVCMemSpyEngineDriveEntry@@H@Z @ 29 NONAME ; class CMemSpyEngineDriveEntry & CMemSpyEngineDriveList::At(int)
	?At@CMemSpyEngineDriveList@@QBEABVCMemSpyEngineDriveEntry@@H@Z @ 30 NONAME ; class CMemSpyEngineDriveEntry const & CMemSpyEngineDriveList::At(int) const
	?At@CMemSpyEngineEComCategory@@QAEAAVCMemSpyEngineEComInterface@@H@Z @ 31 NONAME ; class CMemSpyEngineEComInterface & CMemSpyEngineEComCategory::At(int)
	?At@CMemSpyEngineEComInterface@@QAEAAVCMemSpyEngineEComImplementation@@H@Z @ 32 NONAME ; class CMemSpyEngineEComImplementation & CMemSpyEngineEComInterface::At(int)
	?At@CMemSpyEngineFbServBitmapArray@@QAEAAVCMemSpyEngineFbServBitmap@@H@Z @ 33 NONAME ; class CMemSpyEngineFbServBitmap & CMemSpyEngineFbServBitmapArray::At(int)
	?At@CMemSpyEngineFbServBitmapArray@@QBEABVCMemSpyEngineFbServBitmap@@H@Z @ 34 NONAME ; class CMemSpyEngineFbServBitmap const & CMemSpyEngineFbServBitmapArray::At(int) const
	?At@CMemSpyEngineGenericKernelObjectContainer@@QBEABVCMemSpyEngineGenericKernelObjectList@@H@Z @ 35 NONAME ; class CMemSpyEngineGenericKernelObjectList const & CMemSpyEngineGenericKernelObjectContainer::At(int) const
	?At@CMemSpyEngineGenericKernelObjectList@@QBEABVTMemSpyDriverHandleInfoGeneric@@H@Z @ 36 NONAME ; class TMemSpyDriverHandleInfoGeneric const & CMemSpyEngineGenericKernelObjectList::At(int) const
	?At@CMemSpyEngineHelperECom@@QAEAAVCMemSpyEngineEComCategory@@H@Z @ 37 NONAME ; class CMemSpyEngineEComCategory & CMemSpyEngineHelperECom::At(int)
	?At@CMemSpyEngineObjectContainer@@QBEAAVCMemSpyProcess@@H@Z @ 38 NONAME ; class CMemSpyProcess & CMemSpyEngineObjectContainer::At(int) const
	?At@CMemSpyEngineOpenFileList@@QBEABVCMemSpyEngineOpenFileListForThread@@H@Z @ 39 NONAME ; class CMemSpyEngineOpenFileListForThread const & CMemSpyEngineOpenFileList::At(int) const
	?At@CMemSpyEngineOpenFileListForThread@@QBEABVCMemSpyEngineOpenFileListEntry@@H@Z @ 40 NONAME ; class CMemSpyEngineOpenFileListEntry const & CMemSpyEngineOpenFileListForThread::At(int) const
	?At@CMemSpyEngineServerList@@QBEABVCMemSpyEngineServerEntry@@H@Z @ 41 NONAME ; class CMemSpyEngineServerEntry const & CMemSpyEngineServerList::At(int) const
	?At@CMemSpyProcess@@QBEAAVCMemSpyThread@@H@Z @ 42 NONAME ; class CMemSpyThread & CMemSpyProcess::At(int) const
	?Bitmap@CMemSpyEngineFbServBitmap@@QAEAAVCFbsBitmap@@XZ @ 43 NONAME ; class CFbsBitmap & CMemSpyEngineFbServBitmap::Bitmap(void)
	?Bitmap@CMemSpyEngineFbServBitmap@@QBEABVCFbsBitmap@@XZ @ 44 NONAME ; class CFbsBitmap const & CMemSpyEngineFbServBitmap::Bitmap(void) const
	?BitmapByHandleL@CMemSpyEngineFbServBitmapArray@@QAEAAVCMemSpyEngineFbServBitmap@@H@Z @ 45 NONAME ; class CMemSpyEngineFbServBitmap & CMemSpyEngineFbServBitmapArray::BitmapByHandleL(int)
	?BitmapIndexByHandle@CMemSpyEngineFbServBitmapArray@@QBEHH@Z @ 46 NONAME ; int CMemSpyEngineFbServBitmapArray::BitmapIndexByHandle(int) const
	?CalculateStackSizes@CMemSpyEngineHelperStack@@QAEHABVCMemSpyProcess@@@Z @ 47 NONAME ; int CMemSpyEngineHelperStack::CalculateStackSizes(class CMemSpyProcess const &)
	?Cancel@CMemSpyDeviceWideOperations@@QAEXXZ @ 48 NONAME ; void CMemSpyDeviceWideOperations::Cancel(void)
	?Caption@CMemSpyEngineFbServBitmap@@QBEABVTDesC16@@XZ @ 49 NONAME ; class TDesC16 const & CMemSpyEngineFbServBitmap::Caption(void) const
	?Caption@CMemSpyEngineHelperSysMemTrackerCycle@@QBEABVTDesC16@@XZ @ 50 NONAME ; class TDesC16 const & CMemSpyEngineHelperSysMemTrackerCycle::Caption(void) const
	?ChangeCount@CMemSpyEngineHelperSysMemTrackerCycle@@QBEHXZ @ 51 NONAME ; int CMemSpyEngineHelperSysMemTrackerCycle::ChangeCount(void) const
	?CleanupTextLC@MemSpyEngineUtils@@SAPAVHBufC16@@ABVTDesC16@@@Z @ 52 NONAME ; class HBufC16 * MemSpyEngineUtils::CleanupTextLC(class TDesC16 const &)
	?Close@CMemSpyEngineObject@@UAEXXZ @ 53 NONAME ; void CMemSpyEngineObject::Close(void)
	?Close@CMemSpyProcess@@UAEXXZ @ 54 NONAME ; void CMemSpyProcess::Close(void)
	?Close@CMemSpyThread@@UAEXXZ @ 55 NONAME ; void CMemSpyThread::Close(void)
	?Close@CMemSpyThreadInfoContainer@@UAEXXZ @ 56 NONAME ; void CMemSpyThreadInfoContainer::Close(void)
	?CodeSegmentListL@CMemSpyEngineHelperCodeSegment@@QAEPAVCMemSpyEngineCodeSegList@@VTProcessId@@@Z @ 57 NONAME ; class CMemSpyEngineCodeSegList * CMemSpyEngineHelperCodeSegment::CodeSegmentListL(class TProcessId)
	?CodeSegmentListL@CMemSpyEngineHelperCodeSegment@@QAEPAVCMemSpyEngineCodeSegList@@XZ @ 58 NONAME ; class CMemSpyEngineCodeSegList * CMemSpyEngineHelperCodeSegment::CodeSegmentListL(void)
	?CompletedCycles@CMemSpyEngineHelperSysMemTracker@@QBEABV?$RPointerArray@VCMemSpyEngineHelperSysMemTrackerCycle@@@@XZ @ 59 NONAME ; class RPointerArray<class CMemSpyEngineHelperSysMemTrackerCycle> const & CMemSpyEngineHelperSysMemTracker::CompletedCycles(void) const
	?ConnectionCount@CMemSpyThreadInfoSession@@QBEHABVTDesC16@@@Z @ 60 NONAME ; int CMemSpyThreadInfoSession::ConnectionCount(class TDesC16 const &) const
	?Container@CMemSpyEngine@@QAEAAVCMemSpyEngineObjectContainer@@XZ @ 61 NONAME ; class CMemSpyEngineObjectContainer & CMemSpyEngine::Container(void)
	?Container@CMemSpyEngine@@QBEABVCMemSpyEngineObjectContainer@@XZ @ 62 NONAME ; class CMemSpyEngineObjectContainer const & CMemSpyEngine::Container(void) const
	?Count@CMemSpyEngineActiveObjectArray@@QBEHXZ @ 63 NONAME ; int CMemSpyEngineActiveObjectArray::Count(void) const
	?Count@CMemSpyEngineChunkList@@QBEHXZ @ 64 NONAME ; int CMemSpyEngineChunkList::Count(void) const
	?Count@CMemSpyEngineDriveList@@QBEHXZ @ 65 NONAME ; int CMemSpyEngineDriveList::Count(void) const
	?Count@CMemSpyEngineFbServBitmapArray@@QBEHXZ @ 66 NONAME ; int CMemSpyEngineFbServBitmapArray::Count(void) const
	?Count@CMemSpyEngineGenericKernelObjectContainer@@QBEHXZ @ 67 NONAME ; int CMemSpyEngineGenericKernelObjectContainer::Count(void) const
	?Count@CMemSpyEngineGenericKernelObjectList@@QBEHXZ @ 68 NONAME ; int CMemSpyEngineGenericKernelObjectList::Count(void) const
	?Count@CMemSpyEngineObjectContainer@@QBEHXZ @ 69 NONAME ; int CMemSpyEngineObjectContainer::Count(void) const
	?Count@CMemSpyEngineOpenFileList@@QBEHXZ @ 70 NONAME ; int CMemSpyEngineOpenFileList::Count(void) const
	?Count@CMemSpyEngineOpenFileListForThread@@QBEHXZ @ 71 NONAME ; int CMemSpyEngineOpenFileListForThread::Count(void) const
	?Count@CMemSpyEngineServerList@@QBEHXZ @ 72 NONAME ; int CMemSpyEngineServerList::Count(void) const
	?CountAll@CMemSpyEngineObjectContainer@@QBEHXZ @ 73 NONAME ; int CMemSpyEngineObjectContainer::CountAll(void) const
	?CycleNumber@CMemSpyEngineHelperSysMemTrackerCycle@@QBEHXZ @ 74 NONAME ; int CMemSpyEngineHelperSysMemTrackerCycle::CycleNumber(void) const
	?DataStreamBeginL@CMemSpyEngineOutputSink@@QAEXABVTDesC16@@0@Z @ 75 NONAME ; void CMemSpyEngineOutputSink::DataStreamBeginL(class TDesC16 const &, class TDesC16 const &)
	?DataStreamBeginL@CMemSpyEngineOutputSink@@QAEXABVTDesC16@@@Z @ 76 NONAME ; void CMemSpyEngineOutputSink::DataStreamBeginL(class TDesC16 const &)
	?DataStreamTimeStampBeginL@CMemSpyEngineOutputSink@@QAEXABVTTime@@@Z @ 77 NONAME ; void CMemSpyEngineOutputSink::DataStreamTimeStampBeginL(class TTime const &)
	?DataStreamTimeStampEnd@CMemSpyEngineOutputSink@@QAEXXZ @ 78 NONAME ; void CMemSpyEngineOutputSink::DataStreamTimeStampEnd(void)
	?DetailsIndexByEntry@CMemSpyThreadInfoHandleObjectBase@@QBEHABVTMemSpyDriverHandleInfoGeneric@@@Z @ 79 NONAME ; int CMemSpyThreadInfoHandleObjectBase::DetailsIndexByEntry(class TMemSpyDriverHandleInfoGeneric const &) const
	?DetailsIndexByHandle@CMemSpyThreadInfoHandleObjectBase@@QBEHPAX@Z @ 80 NONAME ; int CMemSpyThreadInfoHandleObjectBase::DetailsIndexByHandle(void *) const
	?DriveListL@CMemSpyEngineHelperFileSystem@@QAEPAVCMemSpyEngineDriveList@@XZ @ 81 NONAME ; class CMemSpyEngineDriveList * CMemSpyEngineHelperFileSystem::DriveListL(void)
	?Engine@CMemSpyThreadInfoContainer@@QBEAAVCMemSpyEngine@@XZ @ 82 NONAME ; class CMemSpyEngine & CMemSpyThreadInfoContainer::Engine(void) const
	?Engine@CMemSpyThreadInfoItemBase@@QBEAAVCMemSpyEngine@@XZ @ 83 NONAME ; class CMemSpyEngine & CMemSpyThreadInfoItemBase::Engine(void) const
	?EntryByDriveNumber@CMemSpyEngineDriveList@@QAEPAVCMemSpyEngineDriveEntry@@W4TDriveNumber@@@Z @ 84 NONAME ; class CMemSpyEngineDriveEntry * CMemSpyEngineDriveList::EntryByDriveNumber(enum TDriveNumber)
	?EntryExists@CMemSpyEngineChunkList@@QBEHPAX@Z @ 85 NONAME ; int CMemSpyEngineChunkList::EntryExists(void *) const
	?FileName@CMemSpyEngineOpenFileListEntry@@QBEABVTDesC16@@XZ @ 86 NONAME ; class TDesC16 const & CMemSpyEngineOpenFileListEntry::FileName(void) const
	?FormatHex@MemSpyEngineUtils@@SAXAAVTDes16@@H@Z @ 87 NONAME ; void MemSpyEngineUtils::FormatHex(class TDes16 &, int)
	?FormatPercentage@MemSpyEngineUtils@@SA?AV?$TBuf@$0BO@@@NN@Z @ 88 NONAME ; class TBuf<30> MemSpyEngineUtils::FormatPercentage(double, double)
	?FormatSizeText@MemSpyEngineUtils@@SA?AV?$TBuf@$0BE@@@AB_JHH@Z @ 89 NONAME ; class TBuf<20> MemSpyEngineUtils::FormatSizeText(long long const &, int, int)
	?FormatSizeText@MemSpyEngineUtils@@SA?AV?$TBuf@$0BE@@@H@Z @ 90 NONAME ; class TBuf<20> MemSpyEngineUtils::FormatSizeText(int)
	?FormatSizeTextPrecise@MemSpyEngineUtils@@SA?AV?$TBuf@$0BE@@@H@Z @ 91 NONAME ; class TBuf<20> MemSpyEngineUtils::FormatSizeTextPrecise(int)
	?FormatTimeL@MemSpyEngineUtils@@SAXAAVTDes16@@ABVTTime@@H@Z @ 92 NONAME ; void MemSpyEngineUtils::FormatTimeL(class TDes16 &, class TTime const &, int)
	?FormatTimeL@MemSpyEngineUtils@@SAXAAVTDes16@@AB_JH@Z @ 93 NONAME ; void MemSpyEngineUtils::FormatTimeL(class TDes16 &, long long const &, int)
	?FsSession@CMemSpyEngine@@QAEAAVRFs@@XZ @ 94 NONAME ; class RFs & CMemSpyEngine::FsSession(void)
	?FullName@CMemSpyThread@@QBE?AV?$TBuf@$0BAA@@@XZ @ 95 NONAME ; class TBuf<256> CMemSpyThread::FullName(void) const
	?GetArrayOfBitmapHandlesL@CMemSpyEngineHelperFbServ@@QAEXAAV?$RArray@H@@@Z @ 96 NONAME ; void CMemSpyEngineHelperFbServ::GetArrayOfBitmapHandlesL(class RArray<int> &)
	?GetCapabilityName@MemSpyEngineUtils@@SAXAAVTDes16@@W4TCapability@@@Z @ 97 NONAME ; void MemSpyEngineUtils::GetCapabilityName(class TDes16 &, enum TCapability)
	?GetConfig@CMemSpyEngineHelperSysMemTracker@@QAEXAAVTMemSpyEngineHelperSysMemTrackerConfig@@@Z @ 98 NONAME ; void CMemSpyEngineHelperSysMemTracker::GetConfig(class TMemSpyEngineHelperSysMemTrackerConfig &)
	?GetExportableFileNameL@CMemSpyEngineFbServBitmap@@QBEXAAVTDes16@@@Z @ 99 NONAME ; void CMemSpyEngineFbServBitmap::GetExportableFileNameL(class TDes16 &) const
	?GetFolderL@MemSpyEngineUtils@@SAXAAVRFs@@AAVTDes16@@ABVCMemSpyEngineSinkMetaData@@PBW4TDriveNumber@@@Z @ 100 NONAME ; void MemSpyEngineUtils::GetFolderL(class RFs &, class TDes16 &, class CMemSpyEngineSinkMetaData const &, enum TDriveNumber const *)
	?GetHeapInfoKernelL@CMemSpyEngineHelperHeap@@QAEXAAVTMemSpyHeapInfo@@PAV?$RArray@VTMemSpyDriverFreeCell@@@@@Z @ 101 NONAME ; void CMemSpyEngineHelperHeap::GetHeapInfoKernelL(class TMemSpyHeapInfo &, class RArray<class TMemSpyDriverFreeCell> *)
	?GetHeapInfoUserL@CMemSpyEngineHelperHeap@@QAEXABVCMemSpyProcess@@AAV?$RArray@VTMemSpyHeapInfo@@@@@Z @ 102 NONAME ; void CMemSpyEngineHelperHeap::GetHeapInfoUserL(class CMemSpyProcess const &, class RArray<class TMemSpyHeapInfo> &)
	?GetHeapInfoUserL@CMemSpyEngineHelperHeap@@QAEXABVTProcessId@@ABVTThreadId@@AAVTMemSpyHeapInfo@@PAV?$RArray@VTMemSpyDriverFreeCell@@@@@Z @ 103 NONAME ; void CMemSpyEngineHelperHeap::GetHeapInfoUserL(class TProcessId const &, class TThreadId const &, class TMemSpyHeapInfo &, class RArray<class TMemSpyDriverFreeCell> *)
	?GetRomInfoL@MemSpyEngineUtils@@SAXAAVTDes16@@0@Z @ 104 NONAME ; void MemSpyEngineUtils::GetRomInfoL(class TDes16 &, class TDes16 &)
	?GetServerListL@CMemSpyEngineHelperServer@@QAEXAAV?$RArray@VTMemSpyDriverHandleInfoGeneric@@@@@Z @ 105 NONAME ; void CMemSpyEngineHelperServer::GetServerListL(class RArray<class TMemSpyDriverHandleInfoGeneric> &)
	?GetServerSessionsL@CMemSpyEngineHelperServer@@QAEXABVTMemSpyDriverHandleInfoGeneric@@AAV?$RArray@VTMemSpyDriverServerSessionInfo@@@@@Z @ 106 NONAME ; void CMemSpyEngineHelperServer::GetServerSessionsL(class TMemSpyDriverHandleInfoGeneric const &, class RArray<class TMemSpyDriverServerSessionInfo> &)
	?GetServerSessionsL@CMemSpyEngineHelperServer@@QAEXPAXAAV?$RArray@VTMemSpyDriverServerSessionInfo@@@@@Z @ 107 NONAME ; void CMemSpyEngineHelperServer::GetServerSessionsL(void *, class RArray<class TMemSpyDriverServerSessionInfo> &)
	?GetSessionsL@CMemSpyEngineServerEntry@@QBEXAAVCMemSpyEngineHelperServer@@AAV?$RArray@VTMemSpyDriverServerSessionInfo@@@@@Z @ 108 NONAME ; void CMemSpyEngineServerEntry::GetSessionsL(class CMemSpyEngineHelperServer &, class RArray<class TMemSpyDriverServerSessionInfo> &) const
	?GetSystemDrive@CMemSpyEngineHelperFileSystem@@SA?AW4TDriveNumber@@XZ @ 109 NONAME ; enum TDriveNumber CMemSpyEngineHelperFileSystem::GetSystemDrive(void)
	?GetVersion@CMemSpyEngine@@QAEXAAVTVersion@@@Z @ 110 NONAME ; void CMemSpyEngine::GetVersion(class TVersion &)
	?Handle@CMemSpyEngineFbServBitmap@@QBEHXZ @ 111 NONAME ; int CMemSpyEngineFbServBitmap::Handle(void) const
	?HasCapability@CMemSpyEngineCodeSegEntry@@QBEHW4TCapability@@@Z @ 112 NONAME ; int CMemSpyEngineCodeSegEntry::HasCapability(enum TCapability) const
	?HelperActiveObject@CMemSpyEngine@@QAEAAVCMemSpyEngineHelperActiveObject@@XZ @ 113 NONAME ; class CMemSpyEngineHelperActiveObject & CMemSpyEngine::HelperActiveObject(void)
	?HelperChunk@CMemSpyEngine@@QAEAAVCMemSpyEngineHelperChunk@@XZ @ 114 NONAME ; class CMemSpyEngineHelperChunk & CMemSpyEngine::HelperChunk(void)
	?HelperCodeSegment@CMemSpyEngine@@QAEAAVCMemSpyEngineHelperCodeSegment@@XZ @ 115 NONAME ; class CMemSpyEngineHelperCodeSegment & CMemSpyEngine::HelperCodeSegment(void)
	?HelperECom@CMemSpyEngine@@QAEAAVCMemSpyEngineHelperECom@@XZ @ 116 NONAME ; class CMemSpyEngineHelperECom & CMemSpyEngine::HelperECom(void)
	?HelperFbServ@CMemSpyEngine@@QAEAAVCMemSpyEngineHelperFbServ@@XZ @ 117 NONAME ; class CMemSpyEngineHelperFbServ & CMemSpyEngine::HelperFbServ(void)
	?HelperFileSystem@CMemSpyEngine@@QAEAAVCMemSpyEngineHelperFileSystem@@XZ @ 118 NONAME ; class CMemSpyEngineHelperFileSystem & CMemSpyEngine::HelperFileSystem(void)
	?HelperHeap@CMemSpyEngine@@QAEAAVCMemSpyEngineHelperHeap@@XZ @ 119 NONAME ; class CMemSpyEngineHelperHeap & CMemSpyEngine::HelperHeap(void)
	?HelperKernelContainers@CMemSpyEngine@@QAEAAVCMemSpyEngineHelperKernelContainers@@XZ @ 120 NONAME ; class CMemSpyEngineHelperKernelContainers & CMemSpyEngine::HelperKernelContainers(void)
	?HelperProcess@CMemSpyEngine@@QAEAAVCMemSpyEngineHelperProcess@@XZ @ 121 NONAME ; class CMemSpyEngineHelperProcess & CMemSpyEngine::HelperProcess(void)
	?HelperRAM@CMemSpyEngine@@QAEAAVCMemSpyEngineHelperRAM@@XZ @ 122 NONAME ; class CMemSpyEngineHelperRAM & CMemSpyEngine::HelperRAM(void)
	?HelperROM@CMemSpyEngine@@QAEAAVCMemSpyEngineHelperROM@@XZ @ 123 NONAME ; class CMemSpyEngineHelperROM & CMemSpyEngine::HelperROM(void)
	?HelperServer@CMemSpyEngine@@QAEAAVCMemSpyEngineHelperServer@@XZ @ 124 NONAME ; class CMemSpyEngineHelperServer & CMemSpyEngine::HelperServer(void)
	?HelperStack@CMemSpyEngine@@QAEAAVCMemSpyEngineHelperStack@@XZ @ 125 NONAME ; class CMemSpyEngineHelperStack & CMemSpyEngine::HelperStack(void)
	?HelperSysMemTracker@CMemSpyEngine@@QAEAAVCMemSpyEngineHelperSysMemTracker@@XZ @ 126 NONAME ; class CMemSpyEngineHelperSysMemTracker & CMemSpyEngine::HelperSysMemTracker(void)
	?HelperThread@CMemSpyEngine@@QAEAAVCMemSpyEngineHelperThread@@XZ @ 127 NONAME ; class CMemSpyEngineHelperThread & CMemSpyEngine::HelperThread(void)
	?ImpersonateL@CMemSpyEngineHelperProcess@@QAEXK@Z @ 128 NONAME ; void CMemSpyEngineHelperProcess::ImpersonateL(unsigned long)
	?IndexByHandle@CMemSpyEngineCodeSegList@@QBEHPAX@Z @ 129 NONAME ; int CMemSpyEngineCodeSegList::IndexByHandle(void *) const
	?IndexOf@CMemSpyEngineEComCategory@@QAEHABVCMemSpyEngineEComInterface@@@Z @ 130 NONAME ; int CMemSpyEngineEComCategory::IndexOf(class CMemSpyEngineEComInterface const &)
	?IndexOf@CMemSpyEngineEComInterface@@QAEHABVCMemSpyEngineEComImplementation@@@Z @ 131 NONAME ; int CMemSpyEngineEComInterface::IndexOf(class CMemSpyEngineEComImplementation const &)
	?IndexOf@CMemSpyEngineHelperECom@@QAEHABVCMemSpyEngineEComCategory@@@Z @ 132 NONAME ; int CMemSpyEngineHelperECom::IndexOf(class CMemSpyEngineEComCategory const &)
	?InfoContainerForceSyncronousConstructionL@CMemSpyThread@@QAEAAVCMemSpyThreadInfoContainer@@XZ @ 133 NONAME ; class CMemSpyThreadInfoContainer & CMemSpyThread::InfoContainerForceSyncronousConstructionL(void)
	?InfoContainerL@CMemSpyThread@@QAEAAVCMemSpyThreadInfoContainer@@XZ @ 134 NONAME ; class CMemSpyThreadInfoContainer & CMemSpyThread::InfoContainerL(void)
	?InfoCurrent@CMemSpyThreadInfoMemoryTracking@@QAEAAVMDesC16Array@@XZ @ 135 NONAME ; class MDesC16Array & CMemSpyThreadInfoMemoryTracking::InfoCurrent(void)
	?InfoHWM@CMemSpyThreadInfoMemoryTracking@@QAEAAVMDesC16Array@@XZ @ 136 NONAME ; class MDesC16Array & CMemSpyThreadInfoMemoryTracking::InfoHWM(void)
	?InfoItemIndexByType@CMemSpyThreadInfoContainer@@QAEHW4TMemSpyThreadInfoItemType@@@Z @ 137 NONAME ; int CMemSpyThreadInfoContainer::InfoItemIndexByType(enum TMemSpyThreadInfoItemType)
	?InfoPeak@CMemSpyThreadInfoMemoryTracking@@QAEAAVMDesC16Array@@XZ @ 138 NONAME ; class MDesC16Array & CMemSpyThreadInfoMemoryTracking::InfoPeak(void)
	?InstallSinkL@CMemSpyEngine@@QAEXW4TMemSpySinkType@@@Z @ 139 NONAME ; void CMemSpyEngine::InstallSinkL(enum TMemSpySinkType)
	?IsActive@CMemSpyEngineActiveObject@@QBEHXZ @ 140 NONAME ; int CMemSpyEngineActiveObject::IsActive(void) const
	?IsActive@CMemSpyEngineHelperSysMemTracker@@QBEHXZ @ 141 NONAME ; int CMemSpyEngineHelperSysMemTracker::IsActive(void) const
	?IsAddedToScheduler@CMemSpyEngineActiveObject@@QBEHXZ @ 142 NONAME ; int CMemSpyEngineActiveObject::IsAddedToScheduler(void) const
	?IsAknIconCacheConfigurable@CMemSpyEngineHelperRAM@@QBEHXZ @ 143 NONAME ; int CMemSpyEngineHelperRAM::IsAknIconCacheConfigurable(void) const
	?IsAlive@CMemSpyEngineObjectContainer@@QBEHVTProcessId@@@Z @ 144 NONAME ; int CMemSpyEngineObjectContainer::IsAlive(class TProcessId) const
	?IsAlive@CMemSpyEngineObjectContainer@@QBEHVTProcessId@@VTThreadId@@@Z @ 145 NONAME ; int CMemSpyEngineObjectContainer::IsAlive(class TProcessId, class TThreadId) const
	?IsDead@CMemSpyProcess@@QBEHXZ @ 146 NONAME ; int CMemSpyProcess::IsDead(void) const
	?IsDead@CMemSpyThread@@QBEHXZ @ 147 NONAME ; int CMemSpyThread::IsDead(void) const
	?IsReady@CMemSpyThreadInfoItemBase@@QBEHXZ @ 148 NONAME ; int CMemSpyThreadInfoItemBase::IsReady(void) const
	?IsRomAddress@MemSpyEngineUtils@@SAHPAX@Z @ 149 NONAME ; int MemSpyEngineUtils::IsRomAddress(void *)
	?IsSystemCritical@CMemSpyProcess@@QBEHXZ @ 150 NONAME ; int CMemSpyProcess::IsSystemCritical(void) const
	?IsSystemCritical@CMemSpyThread@@QBEHXZ @ 151 NONAME ; int CMemSpyThread::IsSystemCritical(void) const
	?IsSystemPermanent@CMemSpyProcess@@QBEHXZ @ 152 NONAME ; int CMemSpyProcess::IsSystemPermanent(void) const
	?IsSystemPermanent@CMemSpyThread@@QBEHXZ @ 153 NONAME ; int CMemSpyThread::IsSystemPermanent(void) const
	?Item@CMemSpyThreadInfoContainer@@QAEAAVCMemSpyThreadInfoItemBase@@H@Z @ 154 NONAME ; class CMemSpyThreadInfoItemBase & CMemSpyThreadInfoContainer::Item(int)
	?Item@CMemSpyThreadInfoContainer@@QAEAAVCMemSpyThreadInfoItemBase@@W4TMemSpyThreadInfoItemType@@@Z @ 155 NONAME ; class CMemSpyThreadInfoItemBase & CMemSpyThreadInfoContainer::Item(enum TMemSpyThreadInfoItemType)
	?ItemIndex@CMemSpyEngineChunkList@@QBEHABVCMemSpyEngineChunkEntry@@@Z @ 156 NONAME ; int CMemSpyEngineChunkList::ItemIndex(class CMemSpyEngineChunkEntry const &) const
	?ItemIndex@CMemSpyEngineDriveList@@QBEHABVCMemSpyEngineDriveEntry@@@Z @ 157 NONAME ; int CMemSpyEngineDriveList::ItemIndex(class CMemSpyEngineDriveEntry const &) const
	?ItemIndex@CMemSpyEngineServerList@@QBEHABVCMemSpyEngineServerEntry@@@Z @ 158 NONAME ; int CMemSpyEngineServerList::ItemIndex(class CMemSpyEngineServerEntry const &) const
	?KillL@CMemSpyProcess@@QAEXXZ @ 159 NONAME ; void CMemSpyProcess::KillL(void)
	?KillL@CMemSpyThread@@QAEXXZ @ 160 NONAME ; void CMemSpyThread::KillL(void)
	?ListForProcessL@CMemSpyEngineHelperChunk@@QAEPAVCMemSpyEngineChunkList@@VTProcessId@@@Z @ 161 NONAME ; class CMemSpyEngineChunkList * CMemSpyEngineHelperChunk::ListForProcessL(class TProcessId)
	?ListForThreadL@CMemSpyEngineHelperChunk@@QAEPAVCMemSpyEngineChunkList@@VTThreadId@@@Z @ 162 NONAME ; class CMemSpyEngineChunkList * CMemSpyEngineHelperChunk::ListForThreadL(class TThreadId)
	?ListL@CMemSpyEngineHelperChunk@@QAEPAVCMemSpyEngineChunkList@@XZ @ 163 NONAME ; class CMemSpyEngineChunkList * CMemSpyEngineHelperChunk::ListL(void)
	?ListOpenFilesL@CMemSpyEngine@@QAEXXZ @ 164 NONAME ; void CMemSpyEngine::ListOpenFilesL(void)
	?ListOpenFilesL@CMemSpyEngineHelperFileSystem@@QAEXABVTThreadId@@@Z @ 165 NONAME ; void CMemSpyEngineHelperFileSystem::ListOpenFilesL(class TThreadId const &)
	?ListOpenFilesL@CMemSpyEngineHelperFileSystem@@QAEXXZ @ 166 NONAME ; void CMemSpyEngineHelperFileSystem::ListOpenFilesL(void)
	?MdcaCount@CMemSpyEngineActiveObjectArray@@UBEHXZ @ 167 NONAME ; int CMemSpyEngineActiveObjectArray::MdcaCount(void) const
	?MdcaCount@CMemSpyEngineChunkEntry@@UBEHXZ @ 168 NONAME ; int CMemSpyEngineChunkEntry::MdcaCount(void) const
	?MdcaCount@CMemSpyEngineChunkList@@UBEHXZ @ 169 NONAME ; int CMemSpyEngineChunkList::MdcaCount(void) const
	?MdcaCount@CMemSpyEngineCodeSegList@@UBEHXZ @ 170 NONAME ; int CMemSpyEngineCodeSegList::MdcaCount(void) const
	?MdcaCount@CMemSpyEngineDriveEntry@@UBEHXZ @ 171 NONAME ; int CMemSpyEngineDriveEntry::MdcaCount(void) const
	?MdcaCount@CMemSpyEngineDriveList@@UBEHXZ @ 172 NONAME ; int CMemSpyEngineDriveList::MdcaCount(void) const
	?MdcaCount@CMemSpyEngineEComCategory@@UBEHXZ @ 173 NONAME ; int CMemSpyEngineEComCategory::MdcaCount(void) const
	?MdcaCount@CMemSpyEngineEComImplementation@@UBEHXZ @ 174 NONAME ; int CMemSpyEngineEComImplementation::MdcaCount(void) const
	?MdcaCount@CMemSpyEngineEComInterface@@UBEHXZ @ 175 NONAME ; int CMemSpyEngineEComInterface::MdcaCount(void) const
	?MdcaCount@CMemSpyEngineFbServBitmapArray@@UBEHXZ @ 176 NONAME ; int CMemSpyEngineFbServBitmapArray::MdcaCount(void) const
	?MdcaCount@CMemSpyEngineGenericKernelObjectContainer@@UBEHXZ @ 177 NONAME ; int CMemSpyEngineGenericKernelObjectContainer::MdcaCount(void) const
	?MdcaCount@CMemSpyEngineHelperECom@@UBEHXZ @ 178 NONAME ; int CMemSpyEngineHelperECom::MdcaCount(void) const
	?MdcaCount@CMemSpyEngineHelperSysMemTracker@@UBEHXZ @ 179 NONAME ; int CMemSpyEngineHelperSysMemTracker::MdcaCount(void) const
	?MdcaCount@CMemSpyEngineHelperSysMemTrackerCycle@@UBEHXZ @ 180 NONAME ; int CMemSpyEngineHelperSysMemTrackerCycle::MdcaCount(void) const
	?MdcaCount@CMemSpyEngineObjectContainer@@UBEHXZ @ 181 NONAME ; int CMemSpyEngineObjectContainer::MdcaCount(void) const
	?MdcaCount@CMemSpyEngineServerList@@UBEHXZ @ 182 NONAME ; int CMemSpyEngineServerList::MdcaCount(void) const
	?MdcaCount@CMemSpyProcess@@UBEHXZ @ 183 NONAME ; int CMemSpyProcess::MdcaCount(void) const
	?MdcaCount@CMemSpyThreadInfoActiveObjects@@UBEHXZ @ 184 NONAME ; int CMemSpyThreadInfoActiveObjects::MdcaCount(void) const
	?MdcaCount@CMemSpyThreadInfoChunk@@UBEHXZ @ 185 NONAME ; int CMemSpyThreadInfoChunk::MdcaCount(void) const
	?MdcaCount@CMemSpyThreadInfoCodeSeg@@UBEHXZ @ 186 NONAME ; int CMemSpyThreadInfoCodeSeg::MdcaCount(void) const
	?MdcaCount@CMemSpyThreadInfoContainer@@UBEHXZ @ 187 NONAME ; int CMemSpyThreadInfoContainer::MdcaCount(void) const
	?MdcaCount@CMemSpyThreadInfoItemBase@@UBEHXZ @ 188 NONAME ; int CMemSpyThreadInfoItemBase::MdcaCount(void) const
	?MdcaPoint@CMemSpyEngineActiveObjectArray@@UBE?AVTPtrC16@@H@Z @ 189 NONAME ; class TPtrC16 CMemSpyEngineActiveObjectArray::MdcaPoint(int) const
	?MdcaPoint@CMemSpyEngineChunkEntry@@UBE?AVTPtrC16@@H@Z @ 190 NONAME ; class TPtrC16 CMemSpyEngineChunkEntry::MdcaPoint(int) const
	?MdcaPoint@CMemSpyEngineChunkList@@UBE?AVTPtrC16@@H@Z @ 191 NONAME ; class TPtrC16 CMemSpyEngineChunkList::MdcaPoint(int) const
	?MdcaPoint@CMemSpyEngineCodeSegList@@UBE?AVTPtrC16@@H@Z @ 192 NONAME ; class TPtrC16 CMemSpyEngineCodeSegList::MdcaPoint(int) const
	?MdcaPoint@CMemSpyEngineDriveEntry@@UBE?AVTPtrC16@@H@Z @ 193 NONAME ; class TPtrC16 CMemSpyEngineDriveEntry::MdcaPoint(int) const
	?MdcaPoint@CMemSpyEngineDriveList@@UBE?AVTPtrC16@@H@Z @ 194 NONAME ; class TPtrC16 CMemSpyEngineDriveList::MdcaPoint(int) const
	?MdcaPoint@CMemSpyEngineEComCategory@@UBE?AVTPtrC16@@H@Z @ 195 NONAME ; class TPtrC16 CMemSpyEngineEComCategory::MdcaPoint(int) const
	?MdcaPoint@CMemSpyEngineEComImplementation@@UBE?AVTPtrC16@@H@Z @ 196 NONAME ; class TPtrC16 CMemSpyEngineEComImplementation::MdcaPoint(int) const
	?MdcaPoint@CMemSpyEngineEComInterface@@UBE?AVTPtrC16@@H@Z @ 197 NONAME ; class TPtrC16 CMemSpyEngineEComInterface::MdcaPoint(int) const
	?MdcaPoint@CMemSpyEngineFbServBitmapArray@@UBE?AVTPtrC16@@H@Z @ 198 NONAME ; class TPtrC16 CMemSpyEngineFbServBitmapArray::MdcaPoint(int) const
	?MdcaPoint@CMemSpyEngineGenericKernelObjectContainer@@UBE?AVTPtrC16@@H@Z @ 199 NONAME ; class TPtrC16 CMemSpyEngineGenericKernelObjectContainer::MdcaPoint(int) const
	?MdcaPoint@CMemSpyEngineHelperECom@@UBE?AVTPtrC16@@H@Z @ 200 NONAME ; class TPtrC16 CMemSpyEngineHelperECom::MdcaPoint(int) const
	?MdcaPoint@CMemSpyEngineHelperSysMemTracker@@UBE?AVTPtrC16@@H@Z @ 201 NONAME ; class TPtrC16 CMemSpyEngineHelperSysMemTracker::MdcaPoint(int) const
	?MdcaPoint@CMemSpyEngineHelperSysMemTrackerCycle@@UBE?AVTPtrC16@@H@Z @ 202 NONAME ; class TPtrC16 CMemSpyEngineHelperSysMemTrackerCycle::MdcaPoint(int) const
	?MdcaPoint@CMemSpyEngineObjectContainer@@UBE?AVTPtrC16@@H@Z @ 203 NONAME ; class TPtrC16 CMemSpyEngineObjectContainer::MdcaPoint(int) const
	?MdcaPoint@CMemSpyEngineServerList@@UBE?AVTPtrC16@@H@Z @ 204 NONAME ; class TPtrC16 CMemSpyEngineServerList::MdcaPoint(int) const
	?MdcaPoint@CMemSpyProcess@@UBE?AVTPtrC16@@H@Z @ 205 NONAME ; class TPtrC16 CMemSpyProcess::MdcaPoint(int) const
	?MdcaPoint@CMemSpyThreadInfoActiveObjects@@UBE?AVTPtrC16@@H@Z @ 206 NONAME ; class TPtrC16 CMemSpyThreadInfoActiveObjects::MdcaPoint(int) const
	?MdcaPoint@CMemSpyThreadInfoChunk@@UBE?AVTPtrC16@@H@Z @ 207 NONAME ; class TPtrC16 CMemSpyThreadInfoChunk::MdcaPoint(int) const
	?MdcaPoint@CMemSpyThreadInfoCodeSeg@@UBE?AVTPtrC16@@H@Z @ 208 NONAME ; class TPtrC16 CMemSpyThreadInfoCodeSeg::MdcaPoint(int) const
	?MdcaPoint@CMemSpyThreadInfoContainer@@UBE?AVTPtrC16@@H@Z @ 209 NONAME ; class TPtrC16 CMemSpyThreadInfoContainer::MdcaPoint(int) const
	?MdcaPoint@CMemSpyThreadInfoItemBase@@UBE?AVTPtrC16@@H@Z @ 210 NONAME ; class TPtrC16 CMemSpyThreadInfoItemBase::MdcaPoint(int) const
	?MemoryDelta@CMemSpyEngineHelperSysMemTrackerCycle@@QBE_JXZ @ 211 NONAME ; long long CMemSpyEngineHelperSysMemTrackerCycle::MemoryDelta(void) const
	?MemoryFree@CMemSpyEngineHelperSysMemTrackerCycle@@QBEAB_JXZ @ 212 NONAME ; long long const & CMemSpyEngineHelperSysMemTrackerCycle::MemoryFree(void) const
	?MemoryFreePreviousCycle@CMemSpyEngineHelperSysMemTrackerCycle@@QBE_JXZ @ 213 NONAME ; long long CMemSpyEngineHelperSysMemTrackerCycle::MemoryFreePreviousCycle(void) const
	?Name@CMemSpyEngineGenericKernelObjectList@@QBE?AVTPtrC16@@XZ @ 214 NONAME ; class TPtrC16 CMemSpyEngineGenericKernelObjectList::Name(void) const
	?Name@CMemSpyProcess@@QBE?AVTPtrC16@@XZ @ 215 NONAME ; class TPtrC16 CMemSpyProcess::Name(void) const
	?Name@CMemSpyThread@@QBE?AVTPtrC16@@XZ @ 216 NONAME ; class TPtrC16 CMemSpyThread::Name(void) const
	?Name@CMemSpyThreadInfoActiveObjects@@UBE?AVTPtrC16@@XZ @ 217 NONAME ; class TPtrC16 CMemSpyThreadInfoActiveObjects::Name(void) const
	?Name@CMemSpyThreadInfoChangeNotifier@@UBE?AVTPtrC16@@XZ @ 218 NONAME ; class TPtrC16 CMemSpyThreadInfoChangeNotifier::Name(void) const
	?Name@CMemSpyThreadInfoChunk@@UBE?AVTPtrC16@@XZ @ 219 NONAME ; class TPtrC16 CMemSpyThreadInfoChunk::Name(void) const
	?Name@CMemSpyThreadInfoCodeSeg@@UBE?AVTPtrC16@@XZ @ 220 NONAME ; class TPtrC16 CMemSpyThreadInfoCodeSeg::Name(void) const
	?Name@CMemSpyThreadInfoGeneral@@UBE?AVTPtrC16@@XZ @ 221 NONAME ; class TPtrC16 CMemSpyThreadInfoGeneral::Name(void) const
	?Name@CMemSpyThreadInfoHeap@@UBE?AVTPtrC16@@XZ @ 222 NONAME ; class TPtrC16 CMemSpyThreadInfoHeap::Name(void) const
	?Name@CMemSpyThreadInfoLDD@@UBE?AVTPtrC16@@XZ @ 223 NONAME ; class TPtrC16 CMemSpyThreadInfoLDD::Name(void) const
	?Name@CMemSpyThreadInfoLogicalChannel@@UBE?AVTPtrC16@@XZ @ 224 NONAME ; class TPtrC16 CMemSpyThreadInfoLogicalChannel::Name(void) const
	?Name@CMemSpyThreadInfoMemoryTracking@@UBE?AVTPtrC16@@XZ @ 225 NONAME ; class TPtrC16 CMemSpyThreadInfoMemoryTracking::Name(void) const
	?Name@CMemSpyThreadInfoMutex@@UBE?AVTPtrC16@@XZ @ 226 NONAME ; class TPtrC16 CMemSpyThreadInfoMutex::Name(void) const
	?Name@CMemSpyThreadInfoOpenFiles@@UBE?AVTPtrC16@@XZ @ 227 NONAME ; class TPtrC16 CMemSpyThreadInfoOpenFiles::Name(void) const
	?Name@CMemSpyThreadInfoOtherProcesses@@UBE?AVTPtrC16@@XZ @ 228 NONAME ; class TPtrC16 CMemSpyThreadInfoOtherProcesses::Name(void) const
	?Name@CMemSpyThreadInfoOtherThreads@@UBE?AVTPtrC16@@XZ @ 229 NONAME ; class TPtrC16 CMemSpyThreadInfoOtherThreads::Name(void) const
	?Name@CMemSpyThreadInfoOwnedProcessHandles@@UBE?AVTPtrC16@@XZ @ 230 NONAME ; class TPtrC16 CMemSpyThreadInfoOwnedProcessHandles::Name(void) const
	?Name@CMemSpyThreadInfoOwnedThreadHandles@@UBE?AVTPtrC16@@XZ @ 231 NONAME ; class TPtrC16 CMemSpyThreadInfoOwnedThreadHandles::Name(void) const
	?Name@CMemSpyThreadInfoPDD@@UBE?AVTPtrC16@@XZ @ 232 NONAME ; class TPtrC16 CMemSpyThreadInfoPDD::Name(void) const
	?Name@CMemSpyThreadInfoSemaphore@@UBE?AVTPtrC16@@XZ @ 233 NONAME ; class TPtrC16 CMemSpyThreadInfoSemaphore::Name(void) const
	?Name@CMemSpyThreadInfoServer@@UBE?AVTPtrC16@@XZ @ 234 NONAME ; class TPtrC16 CMemSpyThreadInfoServer::Name(void) const
	?Name@CMemSpyThreadInfoSession@@UBE?AVTPtrC16@@XZ @ 235 NONAME ; class TPtrC16 CMemSpyThreadInfoSession::Name(void) const
	?Name@CMemSpyThreadInfoStack@@UBE?AVTPtrC16@@XZ @ 236 NONAME ; class TPtrC16 CMemSpyThreadInfoStack::Name(void) const
	?Name@CMemSpyThreadInfoTimer@@UBE?AVTPtrC16@@XZ @ 237 NONAME ; class TPtrC16 CMemSpyThreadInfoTimer::Name(void) const
	?Name@CMemSpyThreadInfoUndertaker@@UBE?AVTPtrC16@@XZ @ 238 NONAME ; class TPtrC16 CMemSpyThreadInfoUndertaker::Name(void) const
	?NewHeapSummaryExtendedLC@CMemSpyEngineHelperHeap@@QAEPAVCMemSpyEngineOutputList@@ABVTMemSpyHeapInfo@@PBV?$RArray@VTMemSpyDriverFreeCell@@@@@Z @ 239 NONAME ; class CMemSpyEngineOutputList * CMemSpyEngineHelperHeap::NewHeapSummaryExtendedLC(class TMemSpyHeapInfo const &, class RArray<class TMemSpyDriverFreeCell> const *)
	?NewHeapSummaryShortLC@CMemSpyEngineHelperHeap@@QAEPAVCMemSpyEngineOutputList@@ABVTMemSpyHeapInfo@@@Z @ 240 NONAME ; class CMemSpyEngineOutputList * CMemSpyEngineHelperHeap::NewHeapSummaryShortLC(class TMemSpyHeapInfo const &)
	?NewL@CMemSpyDeviceWideOperations@@SAPAV1@AAVCMemSpyEngine@@AAVMMemSpyDeviceWideOperationsObserver@@W4TOperation@1@@Z @ 241 NONAME ; class CMemSpyDeviceWideOperations * CMemSpyDeviceWideOperations::NewL(class CMemSpyEngine &, class MMemSpyDeviceWideOperationsObserver &, enum CMemSpyDeviceWideOperations::TOperation)
	?NewL@CMemSpyEngine@@SAPAV1@AAVRFs@@@Z @ 242 NONAME ; class CMemSpyEngine * CMemSpyEngine::NewL(class RFs &)
	?NewL@CMemSpyEngineFbServBitmapArray@@SAPAV1@ABV?$RArray@H@@@Z @ 243 NONAME ; class CMemSpyEngineFbServBitmapArray * CMemSpyEngineFbServBitmapArray::NewL(class RArray<int> const &)
	?NewL@CMemSpyEngineFbServBitmapArray@@SAPAV1@HABV?$RArray@H@@AAVMMemSpyEngineFbSerbBitmapArrayObserver@@H@Z @ 244 NONAME ; class CMemSpyEngineFbServBitmapArray * CMemSpyEngineFbServBitmapArray::NewL(int, class RArray<int> const &, class MMemSpyEngineFbSerbBitmapArrayObserver &, int)
	?NewL@CMemSpyEngineSinkMetaData@@SAPAV1@ABVTDesC16@@00HH@Z @ 245 NONAME ; class CMemSpyEngineSinkMetaData * CMemSpyEngineSinkMetaData::NewL(class TDesC16 const &, class TDesC16 const &, class TDesC16 const &, int, int)
	?NewL@CMemSpyEngineSinkMetaData@@SAPAV1@ABVTDesC16@@00HHABVTTime@@@Z @ 246 NONAME ; class CMemSpyEngineSinkMetaData * CMemSpyEngineSinkMetaData::NewL(class TDesC16 const &, class TDesC16 const &, class TDesC16 const &, int, int, class TTime const &)
	?NewL@CMemSpyEngineSinkMetaData@@SAPAV1@XZ @ 247 NONAME ; class CMemSpyEngineSinkMetaData * CMemSpyEngineSinkMetaData::NewL(void)
	?NewL@CMemSpyProcess@@SAPAV1@ABV1@@Z @ 248 NONAME ; class CMemSpyProcess * CMemSpyProcess::NewL(class CMemSpyProcess const &)
	?NewLC@CMemSpyEngineFbServBitmap@@SAPAV1@H@Z @ 249 NONAME ; class CMemSpyEngineFbServBitmap * CMemSpyEngineFbServBitmap::NewLC(int)
	?ObjectByAddressL@CMemSpyEngineActiveObjectArray@@QAEAAVCMemSpyEngineActiveObject@@PAX@Z @ 250 NONAME ; class CMemSpyEngineActiveObject & CMemSpyEngineActiveObjectArray::ObjectByAddressL(void *)
	?ObjectIndexByAddress@CMemSpyEngineActiveObjectArray@@QBEHPAX@Z @ 251 NONAME ; int CMemSpyEngineActiveObjectArray::ObjectIndexByAddress(void *) const
	?ObjectsAllL@CMemSpyEngineHelperKernelContainers@@QAEPAVCMemSpyEngineGenericKernelObjectContainer@@XZ @ 252 NONAME ; class CMemSpyEngineGenericKernelObjectContainer * CMemSpyEngineHelperKernelContainers::ObjectsAllL(void)
	?ObjectsForSpecificContainerL@CMemSpyEngineHelperKernelContainers@@QAEPAVCMemSpyEngineGenericKernelObjectList@@W4TMemSpyDriverContainerType@@@Z @ 253 NONAME ; class CMemSpyEngineGenericKernelObjectList * CMemSpyEngineHelperKernelContainers::ObjectsForSpecificContainerL(enum TMemSpyDriverContainerType)
	?ObserverAddL@CMemSpyThreadInfoContainer@@QAEXAAVMMemSpyThreadInfoContainerObserver@@@Z @ 254 NONAME ; void CMemSpyThreadInfoContainer::ObserverAddL(class MMemSpyThreadInfoContainerObserver &)
	?ObserverRemove@CMemSpyThreadInfoContainer@@QAEXAAVMMemSpyThreadInfoContainerObserver@@@Z @ 255 NONAME ; void CMemSpyThreadInfoContainer::ObserverRemove(class MMemSpyThreadInfoContainerObserver &)
	?Open@CMemSpyEngineObject@@UAEXXZ @ 256 NONAME ; void CMemSpyEngineObject::Open(void)
	?Open@CMemSpyProcess@@UAEXXZ @ 257 NONAME ; void CMemSpyProcess::Open(void)
	?Open@CMemSpyThread@@UAEXXZ @ 258 NONAME ; void CMemSpyThread::Open(void)
	?Open@CMemSpyThreadInfoContainer@@UAEXXZ @ 259 NONAME ; void CMemSpyThreadInfoContainer::Open(void)
	?OutputBinaryDataCompressedL@CMemSpyEngineOutputSink@@QAEXABVTDesC16@@PBE1H@Z @ 260 NONAME ; void CMemSpyEngineOutputSink::OutputBinaryDataCompressedL(class TDesC16 const &, unsigned char const *, unsigned char const *, int)
	?OutputBinaryDataL@CMemSpyEngineOutputSink@@QAEXABVTDesC16@@PBE1H@Z @ 261 NONAME ; void CMemSpyEngineOutputSink::OutputBinaryDataL(class TDesC16 const &, unsigned char const *, unsigned char const *, int)
	?OutputBlankLineL@CMemSpyEngineOutputSink@@QAEXXZ @ 262 NONAME ; void CMemSpyEngineOutputSink::OutputBlankLineL(void)
	?OutputCellListingUserL@CMemSpyEngineHelperHeap@@QAEXABVCMemSpyThread@@@Z @ 263 NONAME ; void CMemSpyEngineHelperHeap::OutputCellListingUserL(class CMemSpyThread const &)
	?OutputChunkInfoForProcessL@CMemSpyEngineHelperChunk@@QAEXABVCMemSpyProcess@@@Z @ 264 NONAME ; void CMemSpyEngineHelperChunk::OutputChunkInfoForProcessL(class CMemSpyProcess const &)
	?OutputChunkInfoForProcessL@CMemSpyEngineHelperChunk@@QAEXVTProcessId@@@Z @ 265 NONAME ; void CMemSpyEngineHelperChunk::OutputChunkInfoForProcessL(class TProcessId)
	?OutputChunkInfoForProcessL@CMemSpyEngineHelperChunk@@QAEXVTProcessId@@AAVTDes16@@@Z @ 266 NONAME ; void CMemSpyEngineHelperChunk::OutputChunkInfoForProcessL(class TProcessId, class TDes16 &)
	?OutputChunkInfoForThreadL@CMemSpyEngineHelperChunk@@QAEXABVCMemSpyThread@@@Z @ 267 NONAME ; void CMemSpyEngineHelperChunk::OutputChunkInfoForThreadL(class CMemSpyThread const &)
	?OutputChunkInfoForThreadL@CMemSpyEngineHelperChunk@@QAEXVTThreadId@@@Z @ 268 NONAME ; void CMemSpyEngineHelperChunk::OutputChunkInfoForThreadL(class TThreadId)
	?OutputChunkInfoForThreadL@CMemSpyEngineHelperChunk@@QAEXVTThreadId@@AAVTDes16@@@Z @ 269 NONAME ; void CMemSpyEngineHelperChunk::OutputChunkInfoForThreadL(class TThreadId, class TDes16 &)
	?OutputCodeSegmentsL@CMemSpyEngineHelperCodeSegment@@QAEXIAAVTDes16@@ABVTDesC16@@VTChar@@H@Z @ 270 NONAME ; void CMemSpyEngineHelperCodeSegment::OutputCodeSegmentsL(unsigned int, class TDes16 &, class TDesC16 const &, class TChar, int)
	?OutputDataColumnsL@CMemSpyEngineActiveObjectArray@@SAXAAVCMemSpyEngine@@@Z @ 271 NONAME ; void CMemSpyEngineActiveObjectArray::OutputDataColumnsL(class CMemSpyEngine &)
	?OutputDataColumnsL@CMemSpyEngineChunkList@@SAXAAVCMemSpyEngine@@@Z @ 272 NONAME ; void CMemSpyEngineChunkList::OutputDataColumnsL(class CMemSpyEngine &)
	?OutputDataColumnsL@CMemSpyEngineCodeSegList@@SAXAAVCMemSpyEngine@@@Z @ 273 NONAME ; void CMemSpyEngineCodeSegList::OutputDataColumnsL(class CMemSpyEngine &)
	?OutputDataColumnsL@CMemSpyEngineFbServBitmap@@SAXAAVCMemSpyEngine@@@Z @ 274 NONAME ; void CMemSpyEngineFbServBitmap::OutputDataColumnsL(class CMemSpyEngine &)
	?OutputDataColumnsL@CMemSpyEngineServerList@@SAXAAVCMemSpyEngine@@H@Z @ 275 NONAME ; void CMemSpyEngineServerList::OutputDataColumnsL(class CMemSpyEngine &, int)
	?OutputDataL@CMemSpyEngineActiveObject@@QBEXAAVCMemSpyEngine@@@Z @ 276 NONAME ; void CMemSpyEngineActiveObject::OutputDataL(class CMemSpyEngine &) const
	?OutputDataL@CMemSpyEngineChunkEntry@@QBEXAAVCMemSpyEngineHelperChunk@@@Z @ 277 NONAME ; void CMemSpyEngineChunkEntry::OutputDataL(class CMemSpyEngineHelperChunk &) const
	?OutputDataL@CMemSpyEngineCodeSegEntry@@QBEXAAVCMemSpyEngineHelperCodeSegment@@@Z @ 278 NONAME ; void CMemSpyEngineCodeSegEntry::OutputDataL(class CMemSpyEngineHelperCodeSegment &) const
	?OutputDataL@CMemSpyEngineFbServBitmap@@QBEXAAVCMemSpyEngine@@@Z @ 279 NONAME ; void CMemSpyEngineFbServBitmap::OutputDataL(class CMemSpyEngine &) const
	?OutputDataL@CMemSpyEngineServerEntry@@QBEXAAVCMemSpyEngineHelperServer@@H@Z @ 280 NONAME ; void CMemSpyEngineServerEntry::OutputDataL(class CMemSpyEngineHelperServer &, int) const
	?OutputHeapDataKernelL@CMemSpyEngineHelperHeap@@QAEXXZ @ 281 NONAME ; void CMemSpyEngineHelperHeap::OutputHeapDataKernelL(void)
	?OutputHeapDataUserL@CMemSpyEngineHelperHeap@@QAEXABVCMemSpyThread@@@Z @ 282 NONAME ; void CMemSpyEngineHelperHeap::OutputHeapDataUserL(class CMemSpyThread const &)
	?OutputHeapDataUserL@CMemSpyEngineHelperHeap@@QAEXABVTProcessId@@ABVTThreadId@@ABVTDesC16@@ABVTMemSpyHeapInfo@@PBV?$RArray@VTMemSpyDriverFreeCell@@@@@Z @ 283 NONAME ; void CMemSpyEngineHelperHeap::OutputHeapDataUserL(class TProcessId const &, class TThreadId const &, class TDesC16 const &, class TMemSpyHeapInfo const &, class RArray<class TMemSpyDriverFreeCell> const *)
	?OutputHeapInfoForDeviceL@CMemSpyEngineHelperHeap@@QAEXH@Z @ 284 NONAME ; void CMemSpyEngineHelperHeap::OutputHeapInfoForDeviceL(int)
	?OutputHeapInfoKernelL@CMemSpyEngineHelperHeap@@QAEXXZ @ 285 NONAME ; void CMemSpyEngineHelperHeap::OutputHeapInfoKernelL(void)
	?OutputHeapInfoL@CMemSpyEngineHelperHeap@@QAEXABVTMemSpyHeapInfo@@ABVTDesC16@@PBV?$RArray@VTMemSpyDriverFreeCell@@@@@Z @ 286 NONAME ; void CMemSpyEngineHelperHeap::OutputHeapInfoL(class TMemSpyHeapInfo const &, class TDesC16 const &, class RArray<class TMemSpyDriverFreeCell> const *)
	?OutputHeapInfoUserL@CMemSpyEngineHelperHeap@@QAEXABVCMemSpyThread@@@Z @ 287 NONAME ; void CMemSpyEngineHelperHeap::OutputHeapInfoUserL(class CMemSpyThread const &)
	?OutputItemAndValueL@CMemSpyEngineOutputSink@@QAEXABVTDesC16@@0@Z @ 288 NONAME ; void CMemSpyEngineOutputSink::OutputItemAndValueL(class TDesC16 const &, class TDesC16 const &)
	?OutputItemAndValueL@CMemSpyEngineOutputSink@@QAEXABVTDesC16@@IH@Z @ 289 NONAME ; void CMemSpyEngineOutputSink::OutputItemAndValueL(class TDesC16 const &, unsigned int, int)
	?OutputL@CMemSpyEngineGenericKernelObjectContainer@@QBEXAAVCMemSpyEngineOutputSink@@@Z @ 290 NONAME ; void CMemSpyEngineGenericKernelObjectContainer::OutputL(class CMemSpyEngineOutputSink &) const
	?OutputL@CMemSpyEngineGenericKernelObjectList@@QBEXAAVCMemSpyEngineOutputSink@@@Z @ 291 NONAME ; void CMemSpyEngineGenericKernelObjectList::OutputL(class CMemSpyEngineOutputSink &) const
	?OutputL@CMemSpyEngineHelperKernelContainers@@QBEXABVCMemSpyEngineGenericKernelObjectContainer@@@Z @ 292 NONAME ; void CMemSpyEngineHelperKernelContainers::OutputL(class CMemSpyEngineGenericKernelObjectContainer const &) const
	?OutputLineFormattedL@CMemSpyEngineOutputSink@@QAAXV?$TRefByValue@$$CBVTDesC16@@@@ZZ @ 293 NONAME ; void CMemSpyEngineOutputSink::OutputLineFormattedL(class TRefByValue<class TDesC16 const >, ...)
	?OutputLineL@CMemSpyEngineOutputSink@@QAEXABVTDesC16@@H@Z @ 294 NONAME ; void CMemSpyEngineOutputSink::OutputLineL(class TDesC16 const &, int)
	?OutputPrefixClear@CMemSpyEngineOutputSink@@QAEXXZ @ 295 NONAME ; void CMemSpyEngineOutputSink::OutputPrefixClear(void)
	?OutputPrefixSetFormattedLC@CMemSpyEngineOutputSink@@QAAXV?$TRefByValue@$$CBVTDesC16@@@@ZZ @ 296 NONAME ; void CMemSpyEngineOutputSink::OutputPrefixSetFormattedLC(class TRefByValue<class TDesC16 const >, ...)
	?OutputPrefixSetLC@CMemSpyEngineOutputSink@@QAEXABVTDesC16@@@Z @ 297 NONAME ; void CMemSpyEngineOutputSink::OutputPrefixSetLC(class TDesC16 const &)
	?OutputProcessInfoDetailedL@CMemSpyEngineHelperProcess@@QAEXABVCMemSpyProcess@@@Z @ 298 NONAME ; void CMemSpyEngineHelperProcess::OutputProcessInfoDetailedL(class CMemSpyProcess const &)
	?OutputProcessInfoL@CMemSpyEngineHelperProcess@@QAEXABVCMemSpyProcess@@@Z @ 299 NONAME ; void CMemSpyEngineHelperProcess::OutputProcessInfoL(class CMemSpyProcess const &)
	?OutputRawL@CMemSpyEngineOutputSink@@QAEXABVTDesC8@@@Z @ 300 NONAME ; void CMemSpyEngineOutputSink::OutputRawL(class TDesC8 const &)
	?OutputSectionHeadingL@CMemSpyEngineOutputSink@@QAEXABVTDesC16@@VTChar@@@Z @ 301 NONAME ; void CMemSpyEngineOutputSink::OutputSectionHeadingL(class TDesC16 const &, class TChar)
	?OutputStackDataL@CMemSpyEngineHelperStack@@QAEXABVCMemSpyThread@@W4TMemSpyDriverDomainType@@@Z @ 302 NONAME ; void CMemSpyEngineHelperStack::OutputStackDataL(class CMemSpyThread const &, enum TMemSpyDriverDomainType)
	?OutputStackDataL@CMemSpyEngineHelperStack@@QAEXABVCMemSpyThread@@W4TMemSpyDriverDomainType@@H@Z @ 303 NONAME ; void CMemSpyEngineHelperStack::OutputStackDataL(class CMemSpyThread const &, enum TMemSpyDriverDomainType, int)
	?OutputStackInfoForDeviceL@CMemSpyEngineHelperStack@@QAEXXZ @ 304 NONAME ; void CMemSpyEngineHelperStack::OutputStackInfoForDeviceL(void)
	?OutputStackInfoL@CMemSpyEngineHelperStack@@QAEXABVCMemSpyThread@@@Z @ 305 NONAME ; void CMemSpyEngineHelperStack::OutputStackInfoL(class CMemSpyThread const &)
	?OutputStackInfoL@CMemSpyEngineHelperStack@@QAEXVTProcessId@@VTThreadId@@AAVTDes16@@@Z @ 306 NONAME ; void CMemSpyEngineHelperStack::OutputStackInfoL(class TProcessId, class TThreadId, class TDes16 &)
	?OutputThreadInfoL@CMemSpyEngineHelperThread@@QAEXABVCMemSpyThread@@H@Z @ 307 NONAME ; void CMemSpyEngineHelperThread::OutputThreadInfoL(class CMemSpyThread const &, int)
	?OwnerName@CMemSpyEngineChunkEntry@@QBEXAAVTDes16@@@Z @ 308 NONAME ; void CMemSpyEngineChunkEntry::OwnerName(class TDes16 &) const
	?PanicL@CMemSpyProcess@@QAEXXZ @ 309 NONAME ; void CMemSpyProcess::PanicL(void)
	?PanicL@CMemSpyThread@@QAEXXZ @ 310 NONAME ; void CMemSpyThread::PanicL(void)
	?Parent@CMemSpyEngineObject@@QBEPAV1@XZ @ 311 NONAME ; class CMemSpyEngineObject * CMemSpyEngineObject::Parent(void) const
	?PrintL@CMemSpyThreadInfoContainer@@QAEXXZ @ 312 NONAME ; void CMemSpyThreadInfoContainer::PrintL(void)
	?PrintL@CMemSpyThreadInfoItemBase@@QAEXXZ @ 313 NONAME ; void CMemSpyThreadInfoItemBase::PrintL(void)
	?ProcessAndThreadByFullName@CMemSpyEngineObjectContainer@@QBEHABVTDesC16@@AAPAVCMemSpyProcess@@AAPAVCMemSpyThread@@@Z @ 314 NONAME ; int CMemSpyEngineObjectContainer::ProcessAndThreadByFullName(class TDesC16 const &, class CMemSpyProcess * &, class CMemSpyThread * &) const
	?ProcessAndThreadByPartialName@CMemSpyEngineObjectContainer@@QBEHABVTDesC16@@AAPAVCMemSpyProcess@@AAPAVCMemSpyThread@@@Z @ 315 NONAME ; int CMemSpyEngineObjectContainer::ProcessAndThreadByPartialName(class TDesC16 const &, class CMemSpyProcess * &, class CMemSpyThread * &) const
	?ProcessAndThreadByThreadId@CMemSpyEngineObjectContainer@@QBEHVTThreadId@@AAPAVCMemSpyProcess@@AAPAVCMemSpyThread@@@Z @ 316 NONAME ; int CMemSpyEngineObjectContainer::ProcessAndThreadByThreadId(class TThreadId, class CMemSpyProcess * &, class CMemSpyThread * &) const
	?ProcessByIdL@CMemSpyEngineObjectContainer@@QBEAAVCMemSpyProcess@@VTProcessId@@@Z @ 317 NONAME ; class CMemSpyProcess & CMemSpyEngineObjectContainer::ProcessByIdL(class TProcessId) const
	?ProcessId@CMemSpyEngineOpenFileListForThread@@QBEABVTProcessId@@XZ @ 318 NONAME ; class TProcessId const & CMemSpyEngineOpenFileListForThread::ProcessId(void) const
	?ProcessIndexById@CMemSpyEngineObjectContainer@@QBEHVTProcessId@@@Z @ 319 NONAME ; int CMemSpyEngineObjectContainer::ProcessIndexById(class TProcessId) const
	?RebuildL@CMemSpyThreadInfoItemBase@@UAEXXZ @ 320 NONAME ; void CMemSpyThreadInfoItemBase::RebuildL(void)
	?RefreshL@CMemSpyEngineObjectContainer@@QAEXABVTDesC16@@@Z @ 321 NONAME ; void CMemSpyEngineObjectContainer::RefreshL(class TDesC16 const &)
	?RefreshL@CMemSpyEngineObjectContainer@@QAEXXZ @ 322 NONAME ; void CMemSpyEngineObjectContainer::RefreshL(void)
	?RemoveObserver@CMemSpyEngineHelperSysMemTracker@@QAEXPAVMMemSpyEngineHelperSysMemTrackerObserver@@@Z @ 323 NONAME ; void CMemSpyEngineHelperSysMemTracker::RemoveObserver(class MMemSpyEngineHelperSysMemTrackerObserver *)
	?RemoveObserver@CMemSpyEngineProcessMemoryTracker@@QAEXAAVMMemSpyEngineProcessMemoryTrackerObserver@@@Z @ 324 NONAME ; void CMemSpyEngineProcessMemoryTracker::RemoveObserver(class MMemSpyEngineProcessMemoryTrackerObserver &)
	?RequestIsPending@CMemSpyEngineActiveObject@@QBEHXZ @ 325 NONAME ; int CMemSpyEngineActiveObject::RequestIsPending(void) const
	?ResetHWML@CMemSpyEngineProcessMemoryTracker@@QAEXXZ @ 326 NONAME ; void CMemSpyEngineProcessMemoryTracker::ResetHWML(void)
	?SID@CMemSpyProcess@@QBEKXZ @ 327 NONAME ; unsigned long CMemSpyProcess::SID(void) const
	?ServerListL@CMemSpyEngineHelperServer@@QAEPAVCMemSpyEngineServerList@@XZ @ 328 NONAME ; class CMemSpyEngineServerList * CMemSpyEngineHelperServer::ServerListL(void)
	?SessionType@CMemSpyThreadInfoServer@@SA?AVTPtrC16@@W4TIpcSessionType@@@Z @ 329 NONAME ; class TPtrC16 CMemSpyThreadInfoServer::SessionType(enum TIpcSessionType)
	?SetAknIconCacheStatusL@CMemSpyEngineHelperRAM@@QAE_JH@Z @ 330 NONAME ; long long CMemSpyEngineHelperRAM::SetAknIconCacheStatusL(int)
	?SetConfigL@CMemSpyEngineHelperSysMemTracker@@QAEXABVTMemSpyEngineHelperSysMemTrackerConfig@@@Z @ 331 NONAME ; void CMemSpyEngineHelperSysMemTracker::SetConfigL(class TMemSpyEngineHelperSysMemTrackerConfig const &)
	?SetMemoryTrackingAutoStartProcessListL@CMemSpyEngineHelperProcess@@QAEXABV?$RArray@VTUid@@@@@Z @ 332 NONAME ; void CMemSpyEngineHelperProcess::SetMemoryTrackingAutoStartProcessListL(class RArray<class TUid> const &)
	?SetObserver@CMemSpyEngine@@QAEXPAVMMemSpyEngineObserver@@@Z @ 333 NONAME ; void CMemSpyEngine::SetObserver(class MMemSpyEngineObserver *)
	?SetObserver@CMemSpyEngineDriveEntry@@QAEXPAVMMemSpyEngineDriveEntryObserver@@@Z @ 334 NONAME ; void CMemSpyEngineDriveEntry::SetObserver(class MMemSpyEngineDriveEntryObserver *)
	?SetObserver@CMemSpyEngineDriveList@@QAEXPAVMMemSpyEngineDriveListObserver@@@Z @ 335 NONAME ; void CMemSpyEngineDriveList::SetObserver(class MMemSpyEngineDriveListObserver *)
	?SetObserver@CMemSpyEngineHelperSysMemTracker@@QAEXPAVMMemSpyEngineHelperSysMemTrackerObserver@@@Z @ 336 NONAME ; void CMemSpyEngineHelperSysMemTracker::SetObserver(class MMemSpyEngineHelperSysMemTrackerObserver *)
	?SetParent@CMemSpyEngineObject@@QAEXPAV1@@Z @ 337 NONAME ; void CMemSpyEngineObject::SetParent(class CMemSpyEngineObject *)
	?SetPriorityL@CMemSpyThread@@QAEXW4TThreadPriority@@@Z @ 338 NONAME ; void CMemSpyThread::SetPriorityL(enum TThreadPriority)
	?ShowOnlyEntriesWithGlobalDataL@CMemSpyEngineCodeSegList@@QAEXXZ @ 339 NONAME ; void CMemSpyEngineCodeSegList::ShowOnlyEntriesWithGlobalDataL(void)
	?Sink@CMemSpyEngine@@QAEAAVCMemSpyEngineOutputSink@@XZ @ 340 NONAME ; class CMemSpyEngineOutputSink & CMemSpyEngine::Sink(void)
	?SinkType@CMemSpyEngine@@QAE?AW4TMemSpySinkType@@XZ @ 341 NONAME ; enum TMemSpySinkType CMemSpyEngine::SinkType(void)
	?Size@CMemSpyEngineOpenFileListEntry@@QBEHXZ @ 342 NONAME ; int CMemSpyEngineOpenFileListEntry::Size(void) const
	?SortByCodeSegs@CMemSpyEngineObjectContainer@@QAEXXZ @ 343 NONAME ; void CMemSpyEngineObjectContainer::SortByCodeSegs(void)
	?SortByCodeSizeL@CMemSpyEngineCodeSegList@@QAEXXZ @ 344 NONAME ; void CMemSpyEngineCodeSegList::SortByCodeSizeL(void)
	?SortByDataSizeL@CMemSpyEngineCodeSegList@@QAEXXZ @ 345 NONAME ; void CMemSpyEngineCodeSegList::SortByDataSizeL(void)
	?SortByFileNameL@CMemSpyEngineCodeSegList@@QAEXXZ @ 346 NONAME ; void CMemSpyEngineCodeSegList::SortByFileNameL(void)
	?SortByHeapUsage@CMemSpyEngineObjectContainer@@QAEXXZ @ 347 NONAME ; void CMemSpyEngineObjectContainer::SortByHeapUsage(void)
	?SortById@CMemSpyEngineObjectContainer@@QAEXXZ @ 348 NONAME ; void CMemSpyEngineObjectContainer::SortById(void)
	?SortByName@CMemSpyEngineObjectContainer@@QAEXXZ @ 349 NONAME ; void CMemSpyEngineObjectContainer::SortByName(void)
	?SortByNameL@CMemSpyEngineChunkList@@QAEXXZ @ 350 NONAME ; void CMemSpyEngineChunkList::SortByNameL(void)
	?SortByNameL@CMemSpyEngineServerList@@QAEXXZ @ 351 NONAME ; void CMemSpyEngineServerList::SortByNameL(void)
	?SortBySessionCountL@CMemSpyEngineServerList@@QAEXXZ @ 352 NONAME ; void CMemSpyEngineServerList::SortBySessionCountL(void)
	?SortBySizeL@CMemSpyEngineChunkList@@QAEXXZ @ 353 NONAME ; void CMemSpyEngineChunkList::SortBySizeL(void)
	?SortByStackUsage@CMemSpyEngineObjectContainer@@QAEXXZ @ 354 NONAME ; void CMemSpyEngineObjectContainer::SortByStackUsage(void)
	?SortByThreadCount@CMemSpyEngineObjectContainer@@QAEXXZ @ 355 NONAME ; void CMemSpyEngineObjectContainer::SortByThreadCount(void)
	?SortByUidsL@CMemSpyEngineCodeSegList@@QAEXXZ @ 356 NONAME ; void CMemSpyEngineCodeSegList::SortByUidsL(void)
	?StartL@CMemSpyEngineHelperSysMemTracker@@QAEXABVTMemSpyEngineHelperSysMemTrackerConfig@@@Z @ 357 NONAME ; void CMemSpyEngineHelperSysMemTracker::StartL(class TMemSpyEngineHelperSysMemTrackerConfig const &)
	?StartL@CMemSpyEngineHelperSysMemTracker@@QAEXXZ @ 358 NONAME ; void CMemSpyEngineHelperSysMemTracker::StartL(void)
	?StartL@CMemSpyEngineProcessMemoryTracker@@QAEXXZ @ 359 NONAME ; void CMemSpyEngineProcessMemoryTracker::StartL(void)
	?Stop@CMemSpyEngineProcessMemoryTracker@@QAEXXZ @ 360 NONAME ; void CMemSpyEngineProcessMemoryTracker::Stop(void)
	?StopL@CMemSpyEngineHelperSysMemTracker@@QAEXXZ @ 361 NONAME ; void CMemSpyEngineHelperSysMemTracker::StopL(void)
	?StripText@MemSpyEngineUtils@@SAHAAVTDes16@@ABVTDesC16@@@Z @ 362 NONAME ; int MemSpyEngineUtils::StripText(class TDes16 &, class TDesC16 const &)
	?TerminateL@CMemSpyProcess@@QAEXXZ @ 363 NONAME ; void CMemSpyProcess::TerminateL(void)
	?TerminateL@CMemSpyThread@@QAEXXZ @ 364 NONAME ; void CMemSpyThread::TerminateL(void)
	?TextAfterDoubleColon@MemSpyEngineUtils@@SAXAAVTDes16@@@Z @ 365 NONAME ; void MemSpyEngineUtils::TextAfterDoubleColon(class TDes16 &)
	?TextBeforeDoubleColon@MemSpyEngineUtils@@SAXAAVTDes16@@@Z @ 366 NONAME ; void MemSpyEngineUtils::TextBeforeDoubleColon(class TDes16 &)
	?ThreadByIdL@CMemSpyProcess@@QBEAAVCMemSpyThread@@VTThreadId@@@Z @ 367 NONAME ; class CMemSpyThread & CMemSpyProcess::ThreadByIdL(class TThreadId) const
	?ThreadId@CMemSpyEngineOpenFileListForThread@@QBEABVTThreadId@@XZ @ 368 NONAME ; class TThreadId const & CMemSpyEngineOpenFileListForThread::ThreadId(void) const
	?ThreadIndexById@CMemSpyProcess@@QBEHVTThreadId@@@Z @ 369 NONAME ; int CMemSpyProcess::ThreadIndexById(class TThreadId) const
	?ThreadName@CMemSpyEngineOpenFileListForThread@@QBEABVTDesC16@@XZ @ 370 NONAME ; class TDesC16 const & CMemSpyEngineOpenFileListForThread::ThreadName(void) const
	?Time@CMemSpyEngineHelperSysMemTrackerCycle@@QBEABVTTime@@XZ @ 371 NONAME ; class TTime const & CMemSpyEngineHelperSysMemTrackerCycle::Time(void) const
	?TimeFormatted@CMemSpyEngineHelperSysMemTrackerCycle@@QBEABVTDesC16@@XZ @ 372 NONAME ; class TDesC16 const & CMemSpyEngineHelperSysMemTrackerCycle::TimeFormatted(void) const
	?TotalIncludesSharedMemory@CMemSpyThreadInfoMemoryTracking@@QBEHXZ @ 373 NONAME ; int CMemSpyThreadInfoMemoryTracking::TotalIncludesSharedMemory(void) const
	?TotalOperationSize@CMemSpyDeviceWideOperations@@QBEHXZ @ 374 NONAME ; int CMemSpyDeviceWideOperations::TotalOperationSize(void) const
	?TrackingActive@CMemSpyThreadInfoMemoryTracking@@QBEHXZ @ 375 NONAME ; int CMemSpyThreadInfoMemoryTracking::TrackingActive(void) const
	?TrackingObserverAddL@CMemSpyThreadInfoMemoryTracking@@QAEXAAVMMemSpyEngineProcessMemoryTrackerObserver@@@Z @ 376 NONAME ; void CMemSpyThreadInfoMemoryTracking::TrackingObserverAddL(class MMemSpyEngineProcessMemoryTrackerObserver &)
	?TrackingObserverRemove@CMemSpyThreadInfoMemoryTracking@@QAEXAAVMMemSpyEngineProcessMemoryTrackerObserver@@@Z @ 377 NONAME ; void CMemSpyThreadInfoMemoryTracking::TrackingObserverRemove(class MMemSpyEngineProcessMemoryTrackerObserver &)
	?TrackingResetHWML@CMemSpyThreadInfoMemoryTracking@@QAEXXZ @ 378 NONAME ; void CMemSpyThreadInfoMemoryTracking::TrackingResetHWML(void)
	?TrackingSetTotalIncludesSharedMemoryL@CMemSpyThreadInfoMemoryTracking@@QAEXH@Z @ 379 NONAME ; void CMemSpyThreadInfoMemoryTracking::TrackingSetTotalIncludesSharedMemoryL(int)
	?TrackingStartL@CMemSpyThreadInfoMemoryTracking@@QAEXXZ @ 380 NONAME ; void CMemSpyThreadInfoMemoryTracking::TrackingStartL(void)
	?TrackingStopL@CMemSpyThreadInfoMemoryTracking@@QAEXXZ @ 381 NONAME ; void CMemSpyThreadInfoMemoryTracking::TrackingStopL(void)
	?Type@CMemSpyEngineGenericKernelObjectList@@QBE?AW4TMemSpyDriverContainerType@@XZ @ 382 NONAME ; enum TMemSpyDriverContainerType CMemSpyEngineGenericKernelObjectList::Type(void) const
	?Type@CMemSpyThreadInfoItemBase@@QBE?AW4TMemSpyThreadInfoItemType@@XZ @ 383 NONAME ; enum TMemSpyThreadInfoItemType CMemSpyThreadInfoItemBase::Type(void) const
	?TypeAsString@CMemSpyEngineGenericKernelObjectList@@SA?AVTPtrC16@@W4TMemSpyDriverContainerType@@@Z @ 384 NONAME ; class TPtrC16 CMemSpyEngineGenericKernelObjectList::TypeAsString(enum TMemSpyDriverContainerType)
	?VID@CMemSpyProcess@@QBEKXZ @ 385 NONAME ; unsigned long CMemSpyProcess::VID(void) const
	__E32Dll @ 386 NONAME ABSENT ; int CMemSpyEngineWindowGroupList::MdcaCount(void) const
	__E32Dll @ 387 NONAME ABSENT ; void CMemSpyEngineHelperWindowServer::GetWindowGroupListL(class RArray<class TMemSpyEngineWindowGroupInfo> &)
	__E32Dll @ 388 NONAME ABSENT ; CMemSpyEngineWindowGroupList::~CMemSpyEngineWindowGroupList(void)
	__E32Dll @ 389 NONAME ABSENT ; int CMemSpyEngineWindowGroupList::Count(void) const
	__E32Dll @ 390 NONAME ABSENT ; int CMemSpyEngineWindowGroupList::ItemIndex(class TMemSpyEngineWindowGroupInfo const &) const
	__E32Dll @ 391 NONAME ABSENT ; class CMemSpyEngineWindowGroupList * CMemSpyEngineHelperWindowServer::WindowGroupListL(void)
	__E32Dll @ 392 NONAME ABSENT ; class CMemSpyEngineHelperWindowServer & CMemSpyEngine::HelperWindowServer(void)
	__E32Dll @ 393 NONAME ABSENT ; class TPtrC16 CMemSpyEngineWindowGroupList::MdcaPoint(int) const
	__E32Dll @ 394 NONAME ABSENT ; class TMemSpyEngineWindowGroupInfo const & CMemSpyEngineWindowGroupList::At(int) const
	__E32Dll @ 395 NONAME ABSENT ; int CMemSpyEngineWindowGroupList::ItemIndex(class TMemSpyEngineWindowGroupBasicInfo const &) const
	__E32Dll @ 396 NONAME ABSENT ; class TMemSpyEngineWindowGroupBasicInfo const & CMemSpyEngineWindowGroupList::At(int) const
	__E32Dll @ 397 NONAME ABSENT ; void CMemSpyEngineHelperWindowServer::GetWindowGroupListL(class RArray<class TMemSpyEngineWindowGroupBasicInfo> &)
	__E32Dll @ 398 NONAME ABSENT ; void CMemSpyEngineHelperWindowServer::GetWindowGroupDetailsL(int, class TMemSpyEngineWindowGroupDetails &)
	__E32Dll @ 399 NONAME ABSENT ; void CMemSpyEngineHelperWindowServer::SwitchToL(int)
	?Capabilities@CMemSpyProcess@@QBE?AUSCapabilitySet@@XZ @ 400 NONAME ; struct SCapabilitySet CMemSpyProcess::Capabilities(void) const
	?UIDs@CMemSpyProcess@@QBE?AVTUidType@@XZ @ 401 NONAME ; class TUidType CMemSpyProcess::UIDs(void) const
	?HelperCondVar@CMemSpyEngine@@QAEAAVCMemSpyEngineHelperCondVar@@XZ @ 402 NONAME ; class CMemSpyEngineHelperCondVar & CMemSpyEngine::HelperCondVar(void)
	?GetCondVarSuspendedThreadsL@CMemSpyEngineHelperCondVar@@QAEXABVTMemSpyDriverHandleInfoGeneric@@AAV?$RArray@VTMemSpyDriverCondVarSuspendedThreadInfo@@@@@Z @ 403 NONAME ; void CMemSpyEngineHelperCondVar::GetCondVarSuspendedThreadsL(class TMemSpyDriverHandleInfoGeneric const &, class RArray<class TMemSpyDriverCondVarSuspendedThreadInfo> &)
	?HelperWindowServer@CMemSpyEngine@@QAEAAVMMemSpyEngineHelperWindowServer@@XZ @ 404 NONAME ; class MMemSpyEngineHelperWindowServer & CMemSpyEngine::HelperWindowServer(void)
	?IsHelperWindowServerSupported@CMemSpyEngine@@QAEHXZ @ 405 NONAME ; int CMemSpyEngine::IsHelperWindowServerSupported(void)
	__E32Dll @ 406 NONAME ABSENT ; int CMemSpyEngineGenericKernelObjectList::Size(void) const
	__E32Dll @ 407 NONAME ABSENT ; int CMemSpyEngineGenericKernelObjectList::Size(void)
	?Size@CMemSpyEngineGenericKernelObjectList@@QBEHXZ @ 408 NONAME ; int CMemSpyEngineGenericKernelObjectList::Size(void) const
	?NewHeapRawInfo@CMemSpyEngineHelperHeap@@QAEAAVTMemSpyHeapData@@ABVTMemSpyHeapInfo@@@Z @ 409 NONAME ABSENT ; class TMemSpyHeapData & CMemSpyEngineHelperHeap::NewHeapRawInfo(class TMemSpyHeapInfo const &)
	?NewHeapRawInfo@CMemSpyEngineHelperHeap@@QAE?AVTMemSpyHeapData@@ABVTMemSpyHeapInfo@@@Z @ 410 NONAME ; class TMemSpyHeapData CMemSpyEngineHelperHeap::NewHeapRawInfo(class TMemSpyHeapInfo const &)
	?ItemsCount@CMemSpyEngineGenericKernelObjectList@@QBEHXZ @ 411 NONAME ; int CMemSpyEngineGenericKernelObjectList::ItemsCount(void) const
	?Priority@CMemSpyThread@@QBE?AW4TThreadPriority@@XZ @ 412 NONAME ; enum TThreadPriority CMemSpyThread::Priority(void) const
	?NewL@CMemSpyEngine@@SAPAV1@AAVRFs@@H@Z @ 413 NONAME ; class CMemSpyEngine * CMemSpyEngine::NewL(class RFs &, int)
	?Value@CMemSpyThreadInfoItemBase@@QBE?AVTPtrC16@@H@Z @ 414 NONAME ; class TPtrC16 CMemSpyThreadInfoItemBase::Value(int) const
	?ExitType@CMemSpyProcess@@QBE?AW4TExitType@@XZ @ 415 NONAME ; enum TExitType CMemSpyProcess::ExitType(void) const
	?ExitCategory@CMemSpyProcess@@QBE?AV?$TBuf@$0BA@@@XZ @ 416 NONAME ; class TBuf<16> CMemSpyProcess::ExitCategory(void) const
	?Priority@CMemSpyProcess@@QBE?AW4TProcessPriority@@XZ @ 417 NONAME ; enum TProcessPriority CMemSpyProcess::Priority(void) const
	?Caption@CMemSpyThreadInfoItemBase@@QBE?AVTPtrC16@@H@Z @ 418 NONAME ; class TPtrC16 CMemSpyThreadInfoItemBase::Caption(int) const
	?ExitReason@CMemSpyProcess@@QBEHXZ @ 419 NONAME ; int CMemSpyProcess::ExitReason(void) const
	?NewL@CMemSpyEngineSinkMetaData@@SAPAV1@ABVTDesC16@@000HHABVTTime@@@Z @ 420 NONAME ; class CMemSpyEngineSinkMetaData * CMemSpyEngineSinkMetaData::NewL(class TDesC16 const &, class TDesC16 const &, class TDesC16 const &, class TDesC16 const &, int, int, class TTime const &)
	?InstallDebugSinkL@CMemSpyEngine@@QAEXXZ @ 421 NONAME ; void CMemSpyEngine::InstallDebugSinkL(void)
	?NewL@CMemSpyEngineSinkMetaData@@SAPAV1@ABVTDesC16@@000HH@Z @ 422 NONAME ; class CMemSpyEngineSinkMetaData * CMemSpyEngineSinkMetaData::NewL(class TDesC16 const &, class TDesC16 const &, class TDesC16 const &, class TDesC16 const &, int, int)
	?InstallFileSinkL@CMemSpyEngine@@QAEXABVTDesC16@@@Z @ 423 NONAME ; void CMemSpyEngine::InstallFileSinkL(class TDesC16 const &)
	?CheckForChangesNowL@CMemSpyEngineHelperSysMemTracker@@QAEXXZ @ 424 NONAME ; void CMemSpyEngineHelperSysMemTracker::CheckForChangesNowL(void)
	?GetHeapInfoUserL@CMemSpyEngineHelperHeap@@QAEXABVTProcessId@@ABVTThreadId@@AAVTMemSpyHeapInfo@@PAV?$RArray@VTMemSpyDriverFreeCell@@@@H@Z @ 425 NONAME ; void CMemSpyEngineHelperHeap::GetHeapInfoUserL(class TProcessId const &, class TThreadId const &, class TMemSpyHeapInfo &, class RArray<class TMemSpyDriverFreeCell> *, int)
	?GetHeapInfoKernelL@CMemSpyEngineHelperHeap@@QAEXAAVTMemSpyHeapInfo@@PAV?$RArray@VTMemSpyDriverFreeCell@@@@H@Z @ 426 NONAME ; void CMemSpyEngineHelperHeap::GetHeapInfoKernelL(class TMemSpyHeapInfo &, class RArray<class TMemSpyDriverFreeCell> *, int)

