EXPORTS
	??0RATStorageServer@@QAE@XZ @ 1 NONAME ; RATStorageServer::RATStorageServer(void)
	?CancelLogging@RATStorageServer@@QAEHI@Z @ 2 NONAME ; int RATStorageServer::CancelLogging(unsigned int)
	?CheckMemoryAddress@RATStorageServer@@QBEHK@Z @ 3 NONAME ; int RATStorageServer::CheckMemoryAddress(unsigned long) const
	?Close@RATStorageServer@@QAEXXZ @ 4 NONAME ; void RATStorageServer::Close(void)
	?Connect@RATStorageServer@@QAEHXZ @ 5 NONAME ; int RATStorageServer::Connect(void)
	?GetCurrentAllocsL@RATStorageServer@@QAEHIAAK0@Z @ 6 NONAME ; int RATStorageServer::GetCurrentAllocsL(unsigned int, unsigned long &, unsigned long &)
	?GetLoadedDllsL@RATStorageServer@@QAEHIAAV?$RArray@V?$TBuf8@$0DM@@@@@@Z @ 7 NONAME ; int RATStorageServer::GetLoadedDllsL(unsigned int, class RArray<class TBuf8<60> > &)
	?GetLoggingFileL@RATStorageServer@@QAEHIAAVTDes8@@@Z @ 8 NONAME ; int RATStorageServer::GetLoggingFileL(unsigned int, class TDes8 &)
	?GetLoggingModeL@RATStorageServer@@QAEHIAAW4TATLogOption@@@Z @ 9 NONAME ; int RATStorageServer::GetLoggingModeL(unsigned int, enum TATLogOption &)
	?GetMaxAllocsL@RATStorageServer@@QAEHIAAK0@Z @ 10 NONAME ; int RATStorageServer::GetMaxAllocsL(unsigned int, unsigned long &, unsigned long &)
	?GetProcessesL@RATStorageServer@@QAEHAAV?$RArray@VTATProcessInfo@@@@@Z @ 11 NONAME ; int RATStorageServer::GetProcessesL(class RArray<class TATProcessInfo> &)
	?GetUdebL@RATStorageServer@@QAEHIAAK@Z @ 12 NONAME ; int RATStorageServer::GetUdebL(unsigned int, unsigned long &)
	?IsMemoryAdded@RATStorageServer@@QAEHK@Z @ 13 NONAME ; int RATStorageServer::IsMemoryAdded(unsigned long)
	?LogDllLoaded@RATStorageServer@@QAEHABVTDesC8@@KK@Z @ 14 NONAME ; int RATStorageServer::LogDllLoaded(class TDesC8 const &, unsigned long, unsigned long)
	?LogDllUnloaded@RATStorageServer@@QAEHABVTDesC8@@KK@Z @ 15 NONAME ; int RATStorageServer::LogDllUnloaded(class TDesC8 const &, unsigned long, unsigned long)
	?LogMemoryAllocated@RATStorageServer@@QAEHKAAV?$TFixedArray@K$0BAA@@@H@Z @ 16 NONAME ; int RATStorageServer::LogMemoryAllocated(unsigned long, class TFixedArray<unsigned long, 256> &, int)
	?LogMemoryFreed@RATStorageServer@@QAEHKAAV?$TFixedArray@K$0BAA@@@@Z @ 17 NONAME ; int RATStorageServer::LogMemoryFreed(unsigned long, class TFixedArray<unsigned long, 256> &)
	?LogProcessEnded@RATStorageServer@@QAEHII@Z @ 18 NONAME ; int RATStorageServer::LogProcessEnded(unsigned int, unsigned int)
	?LogProcessStarted@RATStorageServer@@QAEHABVTDesC16@@ABVTDesC8@@IKK@Z @ 19 NONAME ; int RATStorageServer::LogProcessStarted(class TDesC16 const &, class TDesC8 const &, unsigned int, unsigned long, unsigned long)
	?StartSubTest@RATStorageServer@@QAEHABVTDesC8@@@Z @ 20 NONAME ; int RATStorageServer::StartSubTest(class TDesC8 const &)
	?StartSubTest@RATStorageServer@@QAEHIABVTDesC8@@H@Z @ 21 NONAME ; int RATStorageServer::StartSubTest(unsigned int, class TDesC8 const &, int)
	?StopSubTest@RATStorageServer@@QAEHABVTDesC8@@@Z @ 22 NONAME ; int RATStorageServer::StopSubTest(class TDesC8 const &)
	?StopSubTest@RATStorageServer@@QAEHIABVTDesC8@@H@Z @ 23 NONAME ; int RATStorageServer::StopSubTest(unsigned int, class TDesC8 const &, int)
	?Version@RATStorageServer@@QBE?AVTVersion@@XZ @ 24 NONAME ; class TVersion RATStorageServer::Version(void) const

